(dp0
S'gvlist'
p1
S"(dp0\nS'shape'\np1\n(lp2\nI2\nasS'bufsize'\np3\nI2\nsS'bcovs'\np4\n(lp5\n(lp6\n(lp7\na(lp8\na(lp9\na(lp10\naa(lp11\n(lp12\nI0\naI1\naI2\naI3\naI4\naI5\naI6\naI7\naI8\naI9\naI10\naI11\naI12\naI13\naI14\naI15\naI16\naI17\naI18\naI19\naI20\naI21\naI22\naI23\naI24\naI25\naI26\naI27\naI28\naI29\naI30\naI31\naI32\naI33\naI34\naI35\naI36\naI37\naI38\naI39\naI40\naI41\naI42\naI43\naI44\naI45\naI46\naI47\naI48\naI49\naI50\naI51\naI52\naI53\naI54\naI55\naI56\naI57\naI58\naI59\naI60\naI61\naI62\naI63\naI64\naI65\naI66\naI67\naI68\naI69\naI70\naI71\naI72\naI73\naI74\naI75\naI76\naI77\naI78\naI79\naI80\naI81\naI82\naI83\naI84\naI85\naI86\naI87\naI88\naI89\naa(lp13\n(lp14\nF1.82876007942677e-08\naF1.8115544906324723e-08\naF1.1138766616973792e-08\naF1.101094765325363e-08\naF5.456499554840373e-09\naF-3.3991187684338775e-06\naF-2.741618902390095e-06\naF-9.289866281878999e-08\naF1.4548760695477143e-06\naF4.487125157541929e-07\naF1.2743796062497653e-07\naF5.9237631948006027e-08\naF4.806968789966567e-07\naF2.406343058178191e-07\naF1.3923229452773145e-06\naF1.389337959630145e-06\naF1.375348338841052e-06\naF-3.5262963578185473e-09\naF-1.6521611770258586e-09\naF-4.162028044673393e-10\naF1.0030527748706878e-08\naF1.1069381526212797e-08\naF7.1174314745726255e-09\naF-1.225310683150167e-07\naF-2.13909434939546e-06\naF-2.0609502377882066e-06\naF-1.5251703387385545e-06\naF-8.428812219144151e-07\naF-3.2853131932548253e-07\naF5.860488360681521e-08\naF4.806027267041849e-07\naF2.851865278824312e-07\naF-2.9982234665663048e-06\naF1.1845560765614593e-08\naF1.2412128981489086e-08\naF8.284344248903906e-09\naF3.919440943613887e-09\naF1.1529539944874793e-09\naF6.30281064575224e-11\naF4.016729528711183e-11\naF2.351586763537287e-11\naF1.0566738037976808e-11\naF3.592459926015672e-12\naF1.1952526961218571e-12\naF-9.00835857820911e-13\naF-3.034681459934012e-12\naF-4.0511649918447095e-12\naF-4.42584230534186e-12\naF-4.553960308174901e-12\naF-4.285853043013734e-12\naF-3.911673828525487e-12\naF-5.134402066150684e-12\naF-5.707268798532933e-12\naF-5.722956725392316e-12\naF-5.573148016990035e-12\naF-4.866622108498304e-12\naF-3.914110028222252e-12\naF-2.9694483511993322e-12\naF-2.9102570351455205e-13\naF7.124508419851624e-12\naF1.7857018067742342e-11\naF3.435429593027626e-11\naF5.463451405047335e-11\naF7.48433505558127e-11\naF6.301846074829485e-11\naF4.011998067992978e-11\naF2.3360886508828627e-11\naF1.0428923491429403e-11\naF3.467551829844419e-12\naF1.1107695968594732e-12\naF-9.618715332330297e-13\naF-3.0520942291024093e-12\naF-4.051498471475522e-12\naF-4.412261221256142e-12\naF-4.535914673876259e-12\naF-4.264614390774765e-12\naF-3.8907824932865124e-12\naF-5.078240236629338e-12\naF-5.651985273282183e-12\naF-5.6755239540583665e-12\naF-5.541829959972506e-12\naF-4.849207137416112e-12\naF-3.916364691090051e-12\naF-2.965415680185407e-12\naF-3.015638875182739e-13\naF7.080859254644915e-12\naF1.7732070037868425e-11\naF3.4201571564269124e-11\naF5.446032614792294e-11\naF7.486463307441834e-11\naa(lp15\nF1.8115544906324723e-08\naF1.7954776968563692e-08\naF1.100259074860766e-08\naF1.0911217376021163e-08\naF5.5627813877337335e-09\naF-3.361312356017953e-06\naF-2.7487281956774213e-06\naF-1.0602846604820098e-07\naF1.4752178800818216e-06\naF4.5606999276574383e-07\naF1.2970980828663228e-07\naF5.868030448808737e-08\naF4.7544081689275787e-07\naF2.446688955429148e-07\naF1.4057309130991634e-06\naF1.4029420429377756e-06\naF1.38898341032555e-06\naF-3.5661538900994237e-09\naF-1.6773933496815094e-09\naF-4.232671387898933e-10\naF9.915451583034949e-09\naF1.1019555289161597e-08\naF7.741900030159624e-09\naF-1.398002408786655e-07\naF-2.084474113740549e-06\naF-2.0290467482346444e-06\naF-1.5100974320178889e-06\naF-8.372741788833099e-07\naF-3.2697115485885967e-07\naF5.808478967377345e-08\naF4.768307334288298e-07\naF3.0201380574815644e-07\naF-2.863598734820075e-06\naF1.159420177842673e-08\naF1.2219891967097976e-08\naF8.19458944195512e-09\naF3.889089562438667e-09\naF1.1462625355175503e-09\naF6.250811651721508e-11\naF3.960407698530837e-11\naF2.311594857554945e-11\naF1.029398244171062e-11\naF3.464713071864614e-12\naF1.0959283017802625e-12\naF-9.404679470645769e-13\naF-3.070846459380184e-12\naF-4.073793303557711e-12\naF-4.440286297707861e-12\naF-4.540204334912122e-12\naF-4.262741829409789e-12\naF-3.881431628664705e-12\naF-5.145045892013643e-12\naF-5.730961069017896e-12\naF-5.759459229300482e-12\naF-5.617729830773529e-12\naF-4.950915333458368e-12\naF-4.055922331285606e-12\naF-3.2169749163885185e-12\naF-6.47319264235839e-13\naF6.656260929493605e-12\naF1.729455373592737e-11\naF3.348115992514885e-11\naF5.342572435829362e-11\naF7.306205787978658e-11\naF6.250458279544659e-11\naF3.9561042158910725e-11\naF2.2966199286328487e-11\naF1.0159192936009518e-11\naF3.342111754759433e-12\naF1.0124687795620218e-12\naF-1.0005508605960216e-12\naF-3.087689292879618e-12\naF-4.073282826727744e-12\naF-4.426165574860426e-12\naF-4.521864172702812e-12\naF-4.241516017252324e-12\naF-3.8607133656307166e-12\naF-5.089512950017418e-12\naF-5.676031635100229e-12\naF-5.7119329196049786e-12\naF-5.585939531989465e-12\naF-4.932704289950012e-12\naF-4.056994911008764e-12\naF-3.211781416685224e-12\naF-6.561295155045273e-13\naF6.6162360422875245e-12\naF1.7174712909037285e-11\naF3.333362975623956e-11\naF5.325620406882675e-11\naF7.308441555828249e-11\naa(lp16\nF1.1138766616973792e-08\naF1.100259074860766e-08\naF0.0001\naF0.0\naF0.0\naF0.0\naF0.0\naF0.0\naF0.0\naF0.0\naF0.0\naF0.0\naF0.0\naF0.0\naF0.0\naF0.0\naF0.0\naF0.0\naF0.0\naF0.0\naF0.0\naF0.0\naF0.0\naF0.0\naF0.0\naF0.0\naF0.0\naF0.0\naF0.0\naF0.0\naF0.0\naF0.0\naF0.0\naF0.0\naF0.0\naF0.0\naF0.0\naF0.0\naF0.0\naF0.0\naF0.0\naF0.0\naF0.0\naF0.0\naF0.0\naF0.0\naF0.0\naF0.0\naF0.0\naF0.0\naF0.0\naF0.0\naF0.0\naF0.0\naF0.0\naF0.0\naF0.0\naF0.0\naF0.0\naF0.0\naF0.0\naF0.0\naF0.0\naF0.0\naF0.0\naF0.0\naF0.0\naF0.0\naF0.0\naF0.0\naF0.0\naF0.0\naF0.0\naF0.0\naF0.0\naF0.0\naF0.0\naF0.0\naF0.0\naF0.0\naF0.0\naF0.0\naF0.0\naF0.0\naF0.0\naF0.0\naF0.0\naF0.0\naF0.0\naF0.0\naa(lp17\nF1.101094765325363e-08\naF1.0911217376021163e-08\naF0.0\naF0.9801\naF0.0\naF0.0\naF0.0\naF0.0\naF0.0\naF0.0\naF0.0\naF0.0\naF0.0\naF0.0\naF0.0\naF0.0\naF0.0\naF0.0\naF0.0\naF0.0\naF0.0\naF0.0\naF0.0\naF0.0\naF0.0\naF0.0\naF0.0\naF0.0\naF0.0\naF0.0\naF0.0\naF0.0\naF0.0\naF0.0\naF0.0\naF0.0\naF0.0\naF0.0\naF0.0\naF0.0\naF0.0\naF0.0\naF0.0\naF0.0\naF0.0\naF0.0\naF0.0\naF0.0\naF0.0\naF0.0\naF0.0\naF0.0\naF0.0\naF0.0\naF0.0\naF0.0\naF0.0\naF0.0\naF0.0\naF0.0\naF0.0\naF0.0\naF0.0\naF0.0\naF0.0\naF0.0\naF0.0\naF0.0\naF0.0\naF0.0\naF0.0\naF0.0\naF0.0\naF0.0\naF0.0\naF0.0\naF0.0\naF0.0\naF0.0\naF0.0\naF0.0\naF0.0\naF0.0\naF0.0\naF0.0\naF0.0\naF0.0\naF0.0\naF0.0\naF0.0\naa(lp18\nF5.456499554840373e-09\naF5.5627813877337335e-09\naF0.0\naF0.0\naF0.9801\naF0.0\naF0.0\naF0.0\naF0.0\naF0.0\naF0.0\naF0.0\naF0.0\naF0.0\naF0.0\naF0.0\naF0.0\naF0.0\naF0.0\naF0.0\naF0.0\naF0.0\naF0.0\naF0.0\naF0.0\naF0.0\naF0.0\naF0.0\naF0.0\naF0.0\naF0.0\naF0.0\naF0.0\naF0.0\naF0.0\naF0.0\naF0.0\naF0.0\naF0.0\naF0.0\naF0.0\naF0.0\naF0.0\naF0.0\naF0.0\naF0.0\naF0.0\naF0.0\naF0.0\naF0.0\naF0.0\naF0.0\naF0.0\naF0.0\naF0.0\naF0.0\naF0.0\naF0.0\naF0.0\naF0.0\naF0.0\naF0.0\naF0.0\naF0.0\naF0.0\naF0.0\naF0.0\naF0.0\naF0.0\naF0.0\naF0.0\naF0.0\naF0.0\naF0.0\naF0.0\naF0.0\naF0.0\naF0.0\naF0.0\naF0.0\naF0.0\naF0.0\naF0.0\naF0.0\naF0.0\naF0.0\naF0.0\naF0.0\naF0.0\naF0.0\naa(lp19\nF-3.3991187684338775e-06\naF-3.361312356017953e-06\naF0.0\naF0.0\naF0.0\naF0.9801\naF0.0\naF0.0\naF0.0\naF0.0\naF0.0\naF0.0\naF0.0\naF0.0\naF0.0\naF0.0\naF0.0\naF0.0\naF0.0\naF0.0\naF0.0\naF0.0\naF0.0\naF0.0\naF0.0\naF0.0\naF0.0\naF0.0\naF0.0\naF0.0\naF0.0\naF0.0\naF0.0\naF0.0\naF0.0\naF0.0\naF0.0\naF0.0\naF0.0\naF0.0\naF0.0\naF0.0\naF0.0\naF0.0\naF0.0\naF0.0\naF0.0\naF0.0\naF0.0\naF0.0\naF0.0\naF0.0\naF0.0\naF0.0\naF0.0\naF0.0\naF0.0\naF0.0\naF0.0\naF0.0\naF0.0\naF0.0\naF0.0\naF0.0\naF0.0\naF0.0\naF0.0\naF0.0\naF0.0\naF0.0\naF0.0\naF0.0\naF0.0\naF0.0\naF0.0\naF0.0\naF0.0\naF0.0\naF0.0\naF0.0\naF0.0\naF0.0\naF0.0\naF0.0\naF0.0\naF0.0\naF0.0\naF0.0\naF0.0\naF0.0\naa(lp20\nF-2.741618902390095e-06\naF-2.7487281956774213e-06\naF0.0\naF0.0\naF0.0\naF0.0\naF0.9801\naF0.0\naF0.0\naF0.0\naF0.0\naF0.0\naF0.0\naF0.0\naF0.0\naF0.0\naF0.0\naF0.0\naF0.0\naF0.0\naF0.0\naF0.0\naF0.0\naF0.0\naF0.0\naF0.0\naF0.0\naF0.0\naF0.0\naF0.0\naF0.0\naF0.0\naF0.0\naF0.0\naF0.0\naF0.0\naF0.0\naF0.0\naF0.0\naF0.0\naF0.0\naF0.0\naF0.0\naF0.0\naF0.0\naF0.0\naF0.0\naF0.0\naF0.0\naF0.0\naF0.0\naF0.0\naF0.0\naF0.0\naF0.0\naF0.0\naF0.0\naF0.0\naF0.0\naF0.0\naF0.0\naF0.0\naF0.0\naF0.0\naF0.0\naF0.0\naF0.0\naF0.0\naF0.0\naF0.0\naF0.0\naF0.0\naF0.0\naF0.0\naF0.0\naF0.0\naF0.0\naF0.0\naF0.0\naF0.0\naF0.0\naF0.0\naF0.0\naF0.0\naF0.0\naF0.0\naF0.0\naF0.0\naF0.0\naF0.0\naa(lp21\nF-9.289866281878999e-08\naF-1.0602846604820098e-07\naF0.0\naF0.0\naF0.0\naF0.0\naF0.0\naF0.9801\naF0.0\naF0.0\naF0.0\naF0.0\naF0.0\naF0.0\naF0.0\naF0.0\naF0.0\naF0.0\naF0.0\naF0.0\naF0.0\naF0.0\naF0.0\naF0.0\naF0.0\naF0.0\naF0.0\naF0.0\naF0.0\naF0.0\naF0.0\naF0.0\naF0.0\naF0.0\naF0.0\naF0.0\naF0.0\naF0.0\naF0.0\naF0.0\naF0.0\naF0.0\naF0.0\naF0.0\naF0.0\naF0.0\naF0.0\naF0.0\naF0.0\naF0.0\naF0.0\naF0.0\naF0.0\naF0.0\naF0.0\naF0.0\naF0.0\naF0.0\naF0.0\naF0.0\naF0.0\naF0.0\naF0.0\naF0.0\naF0.0\naF0.0\naF0.0\naF0.0\naF0.0\naF0.0\naF0.0\naF0.0\naF0.0\naF0.0\naF0.0\naF0.0\naF0.0\naF0.0\naF0.0\naF0.0\naF0.0\naF0.0\naF0.0\naF0.0\naF0.0\naF0.0\naF0.0\naF0.0\naF0.0\naF0.0\naa(lp22\nF1.4548760695477143e-06\naF1.4752178800818216e-06\naF0.0\naF0.0\naF0.0\naF0.0\naF0.0\naF0.0\naF0.9801\naF0.0\naF0.0\naF0.0\naF0.0\naF0.0\naF0.0\naF0.0\naF0.0\naF0.0\naF0.0\naF0.0\naF0.0\naF0.0\naF0.0\naF0.0\naF0.0\naF0.0\naF0.0\naF0.0\naF0.0\naF0.0\naF0.0\naF0.0\naF0.0\naF0.0\naF0.0\naF0.0\naF0.0\naF0.0\naF0.0\naF0.0\naF0.0\naF0.0\naF0.0\naF0.0\naF0.0\naF0.0\naF0.0\naF0.0\naF0.0\naF0.0\naF0.0\naF0.0\naF0.0\naF0.0\naF0.0\naF0.0\naF0.0\naF0.0\naF0.0\naF0.0\naF0.0\naF0.0\naF0.0\naF0.0\naF0.0\naF0.0\naF0.0\naF0.0\naF0.0\naF0.0\naF0.0\naF0.0\naF0.0\naF0.0\naF0.0\naF0.0\naF0.0\naF0.0\naF0.0\naF0.0\naF0.0\naF0.0\naF0.0\naF0.0\naF0.0\naF0.0\naF0.0\naF0.0\naF0.0\naF0.0\naa(lp23\nF4.487125157541929e-07\naF4.5606999276574383e-07\naF0.0\naF0.0\naF0.0\naF0.0\naF0.0\naF0.0\naF0.0\naF0.9801\naF0.0\naF0.0\naF0.0\naF0.0\naF0.0\naF0.0\naF0.0\naF0.0\naF0.0\naF0.0\naF0.0\naF0.0\naF0.0\naF0.0\naF0.0\naF0.0\naF0.0\naF0.0\naF0.0\naF0.0\naF0.0\naF0.0\naF0.0\naF0.0\naF0.0\naF0.0\naF0.0\naF0.0\naF0.0\naF0.0\naF0.0\naF0.0\naF0.0\naF0.0\naF0.0\naF0.0\naF0.0\naF0.0\naF0.0\naF0.0\naF0.0\naF0.0\naF0.0\naF0.0\naF0.0\naF0.0\naF0.0\naF0.0\naF0.0\naF0.0\naF0.0\naF0.0\naF0.0\naF0.0\naF0.0\naF0.0\naF0.0\naF0.0\naF0.0\naF0.0\naF0.0\naF0.0\naF0.0\naF0.0\naF0.0\naF0.0\naF0.0\naF0.0\naF0.0\naF0.0\naF0.0\naF0.0\naF0.0\naF0.0\naF0.0\naF0.0\naF0.0\naF0.0\naF0.0\naF0.0\naa(lp24\nF1.2743796062497653e-07\naF1.2970980828663228e-07\naF0.0\naF0.0\naF0.0\naF0.0\naF0.0\naF0.0\naF0.0\naF0.0\naF0.9801\naF0.0\naF0.0\naF0.0\naF0.0\naF0.0\naF0.0\naF0.0\naF0.0\naF0.0\naF0.0\naF0.0\naF0.0\naF0.0\naF0.0\naF0.0\naF0.0\naF0.0\naF0.0\naF0.0\naF0.0\naF0.0\naF0.0\naF0.0\naF0.0\naF0.0\naF0.0\naF0.0\naF0.0\naF0.0\naF0.0\naF0.0\naF0.0\naF0.0\naF0.0\naF0.0\naF0.0\naF0.0\naF0.0\naF0.0\naF0.0\naF0.0\naF0.0\naF0.0\naF0.0\naF0.0\naF0.0\naF0.0\naF0.0\naF0.0\naF0.0\naF0.0\naF0.0\naF0.0\naF0.0\naF0.0\naF0.0\naF0.0\naF0.0\naF0.0\naF0.0\naF0.0\naF0.0\naF0.0\naF0.0\naF0.0\naF0.0\naF0.0\naF0.0\naF0.0\naF0.0\naF0.0\naF0.0\naF0.0\naF0.0\naF0.0\naF0.0\naF0.0\naF0.0\naF0.0\naa(lp25\nF5.9237631948006027e-08\naF5.868030448808737e-08\naF0.0\naF0.0\naF0.0\naF0.0\naF0.0\naF0.0\naF0.0\naF0.0\naF0.0\naF0.81\naF0.0\naF0.0\naF0.0\naF0.0\naF0.0\naF0.0\naF0.0\naF0.0\naF0.0\naF0.0\naF0.0\naF0.0\naF0.0\naF0.0\naF0.0\naF0.0\naF0.0\naF0.0\naF0.0\naF0.0\naF0.0\naF0.0\naF0.0\naF0.0\naF0.0\naF0.0\naF0.0\naF0.0\naF0.0\naF0.0\naF0.0\naF0.0\naF0.0\naF0.0\naF0.0\naF0.0\naF0.0\naF0.0\naF0.0\naF0.0\naF0.0\naF0.0\naF0.0\naF0.0\naF0.0\naF0.0\naF0.0\naF0.0\naF0.0\naF0.0\naF0.0\naF0.0\naF0.0\naF0.0\naF0.0\naF0.0\naF0.0\naF0.0\naF0.0\naF0.0\naF0.0\naF0.0\naF0.0\naF0.0\naF0.0\naF0.0\naF0.0\naF0.0\naF0.0\naF0.0\naF0.0\naF0.0\naF0.0\naF0.0\naF0.0\naF0.0\naF0.0\naF0.0\naa(lp26\nF4.806968789966567e-07\naF4.7544081689275787e-07\naF0.0\naF0.0\naF0.0\naF0.0\naF0.0\naF0.0\naF0.0\naF0.0\naF0.0\naF0.0\naF0.25\naF0.0\naF0.0\naF0.0\naF0.0\naF0.0\naF0.0\naF0.0\naF0.0\naF0.0\naF0.0\naF0.0\naF0.0\naF0.0\naF0.0\naF0.0\naF0.0\naF0.0\naF0.0\naF0.0\naF0.0\naF0.0\naF0.0\naF0.0\naF0.0\naF0.0\naF0.0\naF0.0\naF0.0\naF0.0\naF0.0\naF0.0\naF0.0\naF0.0\naF0.0\naF0.0\naF0.0\naF0.0\naF0.0\naF0.0\naF0.0\naF0.0\naF0.0\naF0.0\naF0.0\naF0.0\naF0.0\naF0.0\naF0.0\naF0.0\naF0.0\naF0.0\naF0.0\naF0.0\naF0.0\naF0.0\naF0.0\naF0.0\naF0.0\naF0.0\naF0.0\naF0.0\naF0.0\naF0.0\naF0.0\naF0.0\naF0.0\naF0.0\naF0.0\naF0.0\naF0.0\naF0.0\naF0.0\naF0.0\naF0.0\naF0.0\naF0.0\naF0.0\naa(lp27\nF2.406343058178191e-07\naF2.446688955429148e-07\naF0.0\naF0.0\naF0.0\naF0.0\naF0.0\naF0.0\naF0.0\naF0.0\naF0.0\naF0.0\naF0.0\naF0.25\naF0.0\naF0.0\naF0.0\naF0.0\naF0.0\naF0.0\naF0.0\naF0.0\naF0.0\naF0.0\naF0.0\naF0.0\naF0.0\naF0.0\naF0.0\naF0.0\naF0.0\naF0.0\naF0.0\naF0.0\naF0.0\naF0.0\naF0.0\naF0.0\naF0.0\naF0.0\naF0.0\naF0.0\naF0.0\naF0.0\naF0.0\naF0.0\naF0.0\naF0.0\naF0.0\naF0.0\naF0.0\naF0.0\naF0.0\naF0.0\naF0.0\naF0.0\naF0.0\naF0.0\naF0.0\naF0.0\naF0.0\naF0.0\naF0.0\naF0.0\naF0.0\naF0.0\naF0.0\naF0.0\naF0.0\naF0.0\naF0.0\naF0.0\naF0.0\naF0.0\naF0.0\naF0.0\naF0.0\naF0.0\naF0.0\naF0.0\naF0.0\naF0.0\naF0.0\naF0.0\naF0.0\naF0.0\naF0.0\naF0.0\naF0.0\naF0.0\naa(lp28\nF1.3923229452773145e-06\naF1.4057309130991634e-06\naF0.0\naF0.0\naF0.0\naF0.0\naF0.0\naF0.0\naF0.0\naF0.0\naF0.0\naF0.0\naF0.0\naF0.0\naF0.25\naF0.0\naF0.0\naF0.0\naF0.0\naF0.0\naF0.0\naF0.0\naF0.0\naF0.0\naF0.0\naF0.0\naF0.0\naF0.0\naF0.0\naF0.0\naF0.0\naF0.0\naF0.0\naF0.0\naF0.0\naF0.0\naF0.0\naF0.0\naF0.0\naF0.0\naF0.0\naF0.0\naF0.0\naF0.0\naF0.0\naF0.0\naF0.0\naF0.0\naF0.0\naF0.0\naF0.0\naF0.0\naF0.0\naF0.0\naF0.0\naF0.0\naF0.0\naF0.0\naF0.0\naF0.0\naF0.0\naF0.0\naF0.0\naF0.0\naF0.0\naF0.0\naF0.0\naF0.0\naF0.0\naF0.0\naF0.0\naF0.0\naF0.0\naF0.0\naF0.0\naF0.0\naF0.0\naF0.0\naF0.0\naF0.0\naF0.0\naF0.0\naF0.0\naF0.0\naF0.0\naF0.0\naF0.0\naF0.0\naF0.0\naF0.0\naa(lp29\nF1.389337959630145e-06\naF1.4029420429377756e-06\naF0.0\naF0.0\naF0.0\naF0.0\naF0.0\naF0.0\naF0.0\naF0.0\naF0.0\naF0.0\naF0.0\naF0.0\naF0.0\naF0.25\naF0.0\naF0.0\naF0.0\naF0.0\naF0.0\naF0.0\naF0.0\naF0.0\naF0.0\naF0.0\naF0.0\naF0.0\naF0.0\naF0.0\naF0.0\naF0.0\naF0.0\naF0.0\naF0.0\naF0.0\naF0.0\naF0.0\naF0.0\naF0.0\naF0.0\naF0.0\naF0.0\naF0.0\naF0.0\naF0.0\naF0.0\naF0.0\naF0.0\naF0.0\naF0.0\naF0.0\naF0.0\naF0.0\naF0.0\naF0.0\naF0.0\naF0.0\naF0.0\naF0.0\naF0.0\naF0.0\naF0.0\naF0.0\naF0.0\naF0.0\naF0.0\naF0.0\naF0.0\naF0.0\naF0.0\naF0.0\naF0.0\naF0.0\naF0.0\naF0.0\naF0.0\naF0.0\naF0.0\naF0.0\naF0.0\naF0.0\naF0.0\naF0.0\naF0.0\naF0.0\naF0.0\naF0.0\naF0.0\naF0.0\naa(lp30\nF1.375348338841052e-06\naF1.38898341032555e-06\naF0.0\naF0.0\naF0.0\naF0.0\naF0.0\naF0.0\naF0.0\naF0.0\naF0.0\naF0.0\naF0.0\naF0.0\naF0.0\naF0.0\naF0.25\naF0.0\naF0.0\naF0.0\naF0.0\naF0.0\naF0.0\naF0.0\naF0.0\naF0.0\naF0.0\naF0.0\naF0.0\naF0.0\naF0.0\naF0.0\naF0.0\naF0.0\naF0.0\naF0.0\naF0.0\naF0.0\naF0.0\naF0.0\naF0.0\naF0.0\naF0.0\naF0.0\naF0.0\naF0.0\naF0.0\naF0.0\naF0.0\naF0.0\naF0.0\naF0.0\naF0.0\naF0.0\naF0.0\naF0.0\naF0.0\naF0.0\naF0.0\naF0.0\naF0.0\naF0.0\naF0.0\naF0.0\naF0.0\naF0.0\naF0.0\naF0.0\naF0.0\naF0.0\naF0.0\naF0.0\naF0.0\naF0.0\naF0.0\naF0.0\naF0.0\naF0.0\naF0.0\naF0.0\naF0.0\naF0.0\naF0.0\naF0.0\naF0.0\naF0.0\naF0.0\naF0.0\naF0.0\naF0.0\naa(lp31\nF-3.5262963578185473e-09\naF-3.5661538900994237e-09\naF0.0\naF0.0\naF0.0\naF0.0\naF0.0\naF0.0\naF0.0\naF0.0\naF0.0\naF0.0\naF0.0\naF0.0\naF0.0\naF0.0\naF0.0\naF0.25\naF0.0\naF0.0\naF0.0\naF0.0\naF0.0\naF0.0\naF0.0\naF0.0\naF0.0\naF0.0\naF0.0\naF0.0\naF0.0\naF0.0\naF0.0\naF0.0\naF0.0\naF0.0\naF0.0\naF0.0\naF0.0\naF0.0\naF0.0\naF0.0\naF0.0\naF0.0\naF0.0\naF0.0\naF0.0\naF0.0\naF0.0\naF0.0\naF0.0\naF0.0\naF0.0\naF0.0\naF0.0\naF0.0\naF0.0\naF0.0\naF0.0\naF0.0\naF0.0\naF0.0\naF0.0\naF0.0\naF0.0\naF0.0\naF0.0\naF0.0\naF0.0\naF0.0\naF0.0\naF0.0\naF0.0\naF0.0\naF0.0\naF0.0\naF0.0\naF0.0\naF0.0\naF0.0\naF0.0\naF0.0\naF0.0\naF0.0\naF0.0\naF0.0\naF0.0\naF0.0\naF0.0\naF0.0\naa(lp32\nF-1.6521611770258586e-09\naF-1.6773933496815094e-09\naF0.0\naF0.0\naF0.0\naF0.0\naF0.0\naF0.0\naF0.0\naF0.0\naF0.0\naF0.0\naF0.0\naF0.0\naF0.0\naF0.0\naF0.0\naF0.0\naF0.25\naF0.0\naF0.0\naF0.0\naF0.0\naF0.0\naF0.0\naF0.0\naF0.0\naF0.0\naF0.0\naF0.0\naF0.0\naF0.0\naF0.0\naF0.0\naF0.0\naF0.0\naF0.0\naF0.0\naF0.0\naF0.0\naF0.0\naF0.0\naF0.0\naF0.0\naF0.0\naF0.0\naF0.0\naF0.0\naF0.0\naF0.0\naF0.0\naF0.0\naF0.0\naF0.0\naF0.0\naF0.0\naF0.0\naF0.0\naF0.0\naF0.0\naF0.0\naF0.0\naF0.0\naF0.0\naF0.0\naF0.0\naF0.0\naF0.0\naF0.0\naF0.0\naF0.0\naF0.0\naF0.0\naF0.0\naF0.0\naF0.0\naF0.0\naF0.0\naF0.0\naF0.0\naF0.0\naF0.0\naF0.0\naF0.0\naF0.0\naF0.0\naF0.0\naF0.0\naF0.0\naF0.0\naa(lp33\nF-4.162028044673393e-10\naF-4.232671387898933e-10\naF0.0\naF0.0\naF0.0\naF0.0\naF0.0\naF0.0\naF0.0\naF0.0\naF0.0\naF0.0\naF0.0\naF0.0\naF0.0\naF0.0\naF0.0\naF0.0\naF0.0\naF0.25\naF0.0\naF0.0\naF0.0\naF0.0\naF0.0\naF0.0\naF0.0\naF0.0\naF0.0\naF0.0\naF0.0\naF0.0\naF0.0\naF0.0\naF0.0\naF0.0\naF0.0\naF0.0\naF0.0\naF0.0\naF0.0\naF0.0\naF0.0\naF0.0\naF0.0\naF0.0\naF0.0\naF0.0\naF0.0\naF0.0\naF0.0\naF0.0\naF0.0\naF0.0\naF0.0\naF0.0\naF0.0\naF0.0\naF0.0\naF0.0\naF0.0\naF0.0\naF0.0\naF0.0\naF0.0\naF0.0\naF0.0\naF0.0\naF0.0\naF0.0\naF0.0\naF0.0\naF0.0\naF0.0\naF0.0\naF0.0\naF0.0\naF0.0\naF0.0\naF0.0\naF0.0\naF0.0\naF0.0\naF0.0\naF0.0\naF0.0\naF0.0\naF0.0\naF0.0\naF0.0\naa(lp34\nF1.0030527748706878e-08\naF9.915451583034949e-09\naF0.0\naF0.0\naF0.0\naF0.0\naF0.0\naF0.0\naF0.0\naF0.0\naF0.0\naF0.0\naF0.0\naF0.0\naF0.0\naF0.0\naF0.0\naF0.0\naF0.0\naF0.0\naF0.010000000000000002\naF0.0\naF0.0\naF0.0\naF0.0\naF0.0\naF0.0\naF0.0\naF0.0\naF0.0\naF0.0\naF0.0\naF0.0\naF0.0\naF0.0\naF0.0\naF0.0\naF0.0\naF0.0\naF0.0\naF0.0\naF0.0\naF0.0\naF0.0\naF0.0\naF0.0\naF0.0\naF0.0\naF0.0\naF0.0\naF0.0\naF0.0\naF0.0\naF0.0\naF0.0\naF0.0\naF0.0\naF0.0\naF0.0\naF0.0\naF0.0\naF0.0\naF0.0\naF0.0\naF0.0\naF0.0\naF0.0\naF0.0\naF0.0\naF0.0\naF0.0\naF0.0\naF0.0\naF0.0\naF0.0\naF0.0\naF0.0\naF0.0\naF0.0\naF0.0\naF0.0\naF0.0\naF0.0\naF0.0\naF0.0\naF0.0\naF0.0\naF0.0\naF0.0\naF0.0\naa(lp35\nF1.1069381526212797e-08\naF1.1019555289161597e-08\naF0.0\naF0.0\naF0.0\naF0.0\naF0.0\naF0.0\naF0.0\naF0.0\naF0.0\naF0.0\naF0.0\naF0.0\naF0.0\naF0.0\naF0.0\naF0.0\naF0.0\naF0.0\naF0.0\naF0.9801\naF0.0\naF0.0\naF0.0\naF0.0\naF0.0\naF0.0\naF0.0\naF0.0\naF0.0\naF0.0\naF0.0\naF0.0\naF0.0\naF0.0\naF0.0\naF0.0\naF0.0\naF0.0\naF0.0\naF0.0\naF0.0\naF0.0\naF0.0\naF0.0\naF0.0\naF0.0\naF0.0\naF0.0\naF0.0\naF0.0\naF0.0\naF0.0\naF0.0\naF0.0\naF0.0\naF0.0\naF0.0\naF0.0\naF0.0\naF0.0\naF0.0\naF0.0\naF0.0\naF0.0\naF0.0\naF0.0\naF0.0\naF0.0\naF0.0\naF0.0\naF0.0\naF0.0\naF0.0\naF0.0\naF0.0\naF0.0\naF0.0\naF0.0\naF0.0\naF0.0\naF0.0\naF0.0\naF0.0\naF0.0\naF0.0\naF0.0\naF0.0\naF0.0\naa(lp36\nF7.1174314745726255e-09\naF7.741900030159624e-09\naF0.0\naF0.0\naF0.0\naF0.0\naF0.0\naF0.0\naF0.0\naF0.0\naF0.0\naF0.0\naF0.0\naF0.0\naF0.0\naF0.0\naF0.0\naF0.0\naF0.0\naF0.0\naF0.0\naF0.0\naF0.9801\naF0.0\naF0.0\naF0.0\naF0.0\naF0.0\naF0.0\naF0.0\naF0.0\naF0.0\naF0.0\naF0.0\naF0.0\naF0.0\naF0.0\naF0.0\naF0.0\naF0.0\naF0.0\naF0.0\naF0.0\naF0.0\naF0.0\naF0.0\naF0.0\naF0.0\naF0.0\naF0.0\naF0.0\naF0.0\naF0.0\naF0.0\naF0.0\naF0.0\naF0.0\naF0.0\naF0.0\naF0.0\naF0.0\naF0.0\naF0.0\naF0.0\naF0.0\naF0.0\naF0.0\naF0.0\naF0.0\naF0.0\naF0.0\naF0.0\naF0.0\naF0.0\naF0.0\naF0.0\naF0.0\naF0.0\naF0.0\naF0.0\naF0.0\naF0.0\naF0.0\naF0.0\naF0.0\naF0.0\naF0.0\naF0.0\naF0.0\naF0.0\naa(lp37\nF-1.225310683150167e-07\naF-1.398002408786655e-07\naF0.0\naF0.0\naF0.0\naF0.0\naF0.0\naF0.0\naF0.0\naF0.0\naF0.0\naF0.0\naF0.0\naF0.0\naF0.0\naF0.0\naF0.0\naF0.0\naF0.0\naF0.0\naF0.0\naF0.0\naF0.0\naF0.9801\naF0.0\naF0.0\naF0.0\naF0.0\naF0.0\naF0.0\naF0.0\naF0.0\naF0.0\naF0.0\naF0.0\naF0.0\naF0.0\naF0.0\naF0.0\naF0.0\naF0.0\naF0.0\naF0.0\naF0.0\naF0.0\naF0.0\naF0.0\naF0.0\naF0.0\naF0.0\naF0.0\naF0.0\naF0.0\naF0.0\naF0.0\naF0.0\naF0.0\naF0.0\naF0.0\naF0.0\naF0.0\naF0.0\naF0.0\naF0.0\naF0.0\naF0.0\naF0.0\naF0.0\naF0.0\naF0.0\naF0.0\naF0.0\naF0.0\naF0.0\naF0.0\naF0.0\naF0.0\naF0.0\naF0.0\naF0.0\naF0.0\naF0.0\naF0.0\naF0.0\naF0.0\naF0.0\naF0.0\naF0.0\naF0.0\naF0.0\naa(lp38\nF-2.13909434939546e-06\naF-2.084474113740549e-06\naF0.0\naF0.0\naF0.0\naF0.0\naF0.0\naF0.0\naF0.0\naF0.0\naF0.0\naF0.0\naF0.0\naF0.0\naF0.0\naF0.0\naF0.0\naF0.0\naF0.0\naF0.0\naF0.0\naF0.0\naF0.0\naF0.0\naF0.9801\naF0.0\naF0.0\naF0.0\naF0.0\naF0.0\naF0.0\naF0.0\naF0.0\naF0.0\naF0.0\naF0.0\naF0.0\naF0.0\naF0.0\naF0.0\naF0.0\naF0.0\naF0.0\naF0.0\naF0.0\naF0.0\naF0.0\naF0.0\naF0.0\naF0.0\naF0.0\naF0.0\naF0.0\naF0.0\naF0.0\naF0.0\naF0.0\naF0.0\naF0.0\naF0.0\naF0.0\naF0.0\naF0.0\naF0.0\naF0.0\naF0.0\naF0.0\naF0.0\naF0.0\naF0.0\naF0.0\naF0.0\naF0.0\naF0.0\naF0.0\naF0.0\naF0.0\naF0.0\naF0.0\naF0.0\naF0.0\naF0.0\naF0.0\naF0.0\naF0.0\naF0.0\naF0.0\naF0.0\naF0.0\naF0.0\naa(lp39\nF-2.0609502377882066e-06\naF-2.0290467482346444e-06\naF0.0\naF0.0\naF0.0\naF0.0\naF0.0\naF0.0\naF0.0\naF0.0\naF0.0\naF0.0\naF0.0\naF0.0\naF0.0\naF0.0\naF0.0\naF0.0\naF0.0\naF0.0\naF0.0\naF0.0\naF0.0\naF0.0\naF0.0\naF0.9801\naF0.0\naF0.0\naF0.0\naF0.0\naF0.0\naF0.0\naF0.0\naF0.0\naF0.0\naF0.0\naF0.0\naF0.0\naF0.0\naF0.0\naF0.0\naF0.0\naF0.0\naF0.0\naF0.0\naF0.0\naF0.0\naF0.0\naF0.0\naF0.0\naF0.0\naF0.0\naF0.0\naF0.0\naF0.0\naF0.0\naF0.0\naF0.0\naF0.0\naF0.0\naF0.0\naF0.0\naF0.0\naF0.0\naF0.0\naF0.0\naF0.0\naF0.0\naF0.0\naF0.0\naF0.0\naF0.0\naF0.0\naF0.0\naF0.0\naF0.0\naF0.0\naF0.0\naF0.0\naF0.0\naF0.0\naF0.0\naF0.0\naF0.0\naF0.0\naF0.0\naF0.0\naF0.0\naF0.0\naF0.0\naa(lp40\nF-1.5251703387385545e-06\naF-1.5100974320178889e-06\naF0.0\naF0.0\naF0.0\naF0.0\naF0.0\naF0.0\naF0.0\naF0.0\naF0.0\naF0.0\naF0.0\naF0.0\naF0.0\naF0.0\naF0.0\naF0.0\naF0.0\naF0.0\naF0.0\naF0.0\naF0.0\naF0.0\naF0.0\naF0.0\naF0.9801\naF0.0\naF0.0\naF0.0\naF0.0\naF0.0\naF0.0\naF0.0\naF0.0\naF0.0\naF0.0\naF0.0\naF0.0\naF0.0\naF0.0\naF0.0\naF0.0\naF0.0\naF0.0\naF0.0\naF0.0\naF0.0\naF0.0\naF0.0\naF0.0\naF0.0\naF0.0\naF0.0\naF0.0\naF0.0\naF0.0\naF0.0\naF0.0\naF0.0\naF0.0\naF0.0\naF0.0\naF0.0\naF0.0\naF0.0\naF0.0\naF0.0\naF0.0\naF0.0\naF0.0\naF0.0\naF0.0\naF0.0\naF0.0\naF0.0\naF0.0\naF0.0\naF0.0\naF0.0\naF0.0\naF0.0\naF0.0\naF0.0\naF0.0\naF0.0\naF0.0\naF0.0\naF0.0\naF0.0\naa(lp41\nF-8.428812219144151e-07\naF-8.372741788833099e-07\naF0.0\naF0.0\naF0.0\naF0.0\naF0.0\naF0.0\naF0.0\naF0.0\naF0.0\naF0.0\naF0.0\naF0.0\naF0.0\naF0.0\naF0.0\naF0.0\naF0.0\naF0.0\naF0.0\naF0.0\naF0.0\naF0.0\naF0.0\naF0.0\naF0.0\naF0.9801\naF0.0\naF0.0\naF0.0\naF0.0\naF0.0\naF0.0\naF0.0\naF0.0\naF0.0\naF0.0\naF0.0\naF0.0\naF0.0\naF0.0\naF0.0\naF0.0\naF0.0\naF0.0\naF0.0\naF0.0\naF0.0\naF0.0\naF0.0\naF0.0\naF0.0\naF0.0\naF0.0\naF0.0\naF0.0\naF0.0\naF0.0\naF0.0\naF0.0\naF0.0\naF0.0\naF0.0\naF0.0\naF0.0\naF0.0\naF0.0\naF0.0\naF0.0\naF0.0\naF0.0\naF0.0\naF0.0\naF0.0\naF0.0\naF0.0\naF0.0\naF0.0\naF0.0\naF0.0\naF0.0\naF0.0\naF0.0\naF0.0\naF0.0\naF0.0\naF0.0\naF0.0\naF0.0\naa(lp42\nF-3.2853131932548253e-07\naF-3.2697115485885967e-07\naF0.0\naF0.0\naF0.0\naF0.0\naF0.0\naF0.0\naF0.0\naF0.0\naF0.0\naF0.0\naF0.0\naF0.0\naF0.0\naF0.0\naF0.0\naF0.0\naF0.0\naF0.0\naF0.0\naF0.0\naF0.0\naF0.0\naF0.0\naF0.0\naF0.0\naF0.0\naF0.9801\naF0.0\naF0.0\naF0.0\naF0.0\naF0.0\naF0.0\naF0.0\naF0.0\naF0.0\naF0.0\naF0.0\naF0.0\naF0.0\naF0.0\naF0.0\naF0.0\naF0.0\naF0.0\naF0.0\naF0.0\naF0.0\naF0.0\naF0.0\naF0.0\naF0.0\naF0.0\naF0.0\naF0.0\naF0.0\naF0.0\naF0.0\naF0.0\naF0.0\naF0.0\naF0.0\naF0.0\naF0.0\naF0.0\naF0.0\naF0.0\naF0.0\naF0.0\naF0.0\naF0.0\naF0.0\naF0.0\naF0.0\naF0.0\naF0.0\naF0.0\naF0.0\naF0.0\naF0.0\naF0.0\naF0.0\naF0.0\naF0.0\naF0.0\naF0.0\naF0.0\naF0.0\naa(lp43\nF5.860488360681521e-08\naF5.808478967377345e-08\naF0.0\naF0.0\naF0.0\naF0.0\naF0.0\naF0.0\naF0.0\naF0.0\naF0.0\naF0.0\naF0.0\naF0.0\naF0.0\naF0.0\naF0.0\naF0.0\naF0.0\naF0.0\naF0.0\naF0.0\naF0.0\naF0.0\naF0.0\naF0.0\naF0.0\naF0.0\naF0.0\naF0.81\naF0.0\naF0.0\naF0.0\naF0.0\naF0.0\naF0.0\naF0.0\naF0.0\naF0.0\naF0.0\naF0.0\naF0.0\naF0.0\naF0.0\naF0.0\naF0.0\naF0.0\naF0.0\naF0.0\naF0.0\naF0.0\naF0.0\naF0.0\naF0.0\naF0.0\naF0.0\naF0.0\naF0.0\naF0.0\naF0.0\naF0.0\naF0.0\naF0.0\naF0.0\naF0.0\naF0.0\naF0.0\naF0.0\naF0.0\naF0.0\naF0.0\naF0.0\naF0.0\naF0.0\naF0.0\naF0.0\naF0.0\naF0.0\naF0.0\naF0.0\naF0.0\naF0.0\naF0.0\naF0.0\naF0.0\naF0.0\naF0.0\naF0.0\naF0.0\naF0.0\naa(lp44\nF4.806027267041849e-07\naF4.768307334288298e-07\naF0.0\naF0.0\naF0.0\naF0.0\naF0.0\naF0.0\naF0.0\naF0.0\naF0.0\naF0.0\naF0.0\naF0.0\naF0.0\naF0.0\naF0.0\naF0.0\naF0.0\naF0.0\naF0.0\naF0.0\naF0.0\naF0.0\naF0.0\naF0.0\naF0.0\naF0.0\naF0.0\naF0.0\naF0.25\naF0.0\naF0.0\naF0.0\naF0.0\naF0.0\naF0.0\naF0.0\naF0.0\naF0.0\naF0.0\naF0.0\naF0.0\naF0.0\naF0.0\naF0.0\naF0.0\naF0.0\naF0.0\naF0.0\naF0.0\naF0.0\naF0.0\naF0.0\naF0.0\naF0.0\naF0.0\naF0.0\naF0.0\naF0.0\naF0.0\naF0.0\naF0.0\naF0.0\naF0.0\naF0.0\naF0.0\naF0.0\naF0.0\naF0.0\naF0.0\naF0.0\naF0.0\naF0.0\naF0.0\naF0.0\naF0.0\naF0.0\naF0.0\naF0.0\naF0.0\naF0.0\naF0.0\naF0.0\naF0.0\naF0.0\naF0.0\naF0.0\naF0.0\naF0.0\naa(lp45\nF2.851865278824312e-07\naF3.0201380574815644e-07\naF0.0\naF0.0\naF0.0\naF0.0\naF0.0\naF0.0\naF0.0\naF0.0\naF0.0\naF0.0\naF0.0\naF0.0\naF0.0\naF0.0\naF0.0\naF0.0\naF0.0\naF0.0\naF0.0\naF0.0\naF0.0\naF0.0\naF0.0\naF0.0\naF0.0\naF0.0\naF0.0\naF0.0\naF0.0\naF0.25\naF0.0\naF0.0\naF0.0\naF0.0\naF0.0\naF0.0\naF0.0\naF0.0\naF0.0\naF0.0\naF0.0\naF0.0\naF0.0\naF0.0\naF0.0\naF0.0\naF0.0\naF0.0\naF0.0\naF0.0\naF0.0\naF0.0\naF0.0\naF0.0\naF0.0\naF0.0\naF0.0\naF0.0\naF0.0\naF0.0\naF0.0\naF0.0\naF0.0\naF0.0\naF0.0\naF0.0\naF0.0\naF0.0\naF0.0\naF0.0\naF0.0\naF0.0\naF0.0\naF0.0\naF0.0\naF0.0\naF0.0\naF0.0\naF0.0\naF0.0\naF0.0\naF0.0\naF0.0\naF0.0\naF0.0\naF0.0\naF0.0\naF0.0\naa(lp46\nF-2.9982234665663048e-06\naF-2.863598734820075e-06\naF0.0\naF0.0\naF0.0\naF0.0\naF0.0\naF0.0\naF0.0\naF0.0\naF0.0\naF0.0\naF0.0\naF0.0\naF0.0\naF0.0\naF0.0\naF0.0\naF0.0\naF0.0\naF0.0\naF0.0\naF0.0\naF0.0\naF0.0\naF0.0\naF0.0\naF0.0\naF0.0\naF0.0\naF0.0\naF0.0\naF0.25\naF0.0\naF0.0\naF0.0\naF0.0\naF0.0\naF0.0\naF0.0\naF0.0\naF0.0\naF0.0\naF0.0\naF0.0\naF0.0\naF0.0\naF0.0\naF0.0\naF0.0\naF0.0\naF0.0\naF0.0\naF0.0\naF0.0\naF0.0\naF0.0\naF0.0\naF0.0\naF0.0\naF0.0\naF0.0\naF0.0\naF0.0\naF0.0\naF0.0\naF0.0\naF0.0\naF0.0\naF0.0\naF0.0\naF0.0\naF0.0\naF0.0\naF0.0\naF0.0\naF0.0\naF0.0\naF0.0\naF0.0\naF0.0\naF0.0\naF0.0\naF0.0\naF0.0\naF0.0\naF0.0\naF0.0\naF0.0\naF0.0\naa(lp47\nF1.1845560765614593e-08\naF1.159420177842673e-08\naF0.0\naF0.0\naF0.0\naF0.0\naF0.0\naF0.0\naF0.0\naF0.0\naF0.0\naF0.0\naF0.0\naF0.0\naF0.0\naF0.0\naF0.0\naF0.0\naF0.0\naF0.0\naF0.0\naF0.0\naF0.0\naF0.0\naF0.0\naF0.0\naF0.0\naF0.0\naF0.0\naF0.0\naF0.0\naF0.0\naF0.0\naF0.25\naF0.0\naF0.0\naF0.0\naF0.0\naF0.0\naF0.0\naF0.0\naF0.0\naF0.0\naF0.0\naF0.0\naF0.0\naF0.0\naF0.0\naF0.0\naF0.0\naF0.0\naF0.0\naF0.0\naF0.0\naF0.0\naF0.0\naF0.0\naF0.0\naF0.0\naF0.0\naF0.0\naF0.0\naF0.0\naF0.0\naF0.0\naF0.0\naF0.0\naF0.0\naF0.0\naF0.0\naF0.0\naF0.0\naF0.0\naF0.0\naF0.0\naF0.0\naF0.0\naF0.0\naF0.0\naF0.0\naF0.0\naF0.0\naF0.0\naF0.0\naF0.0\naF0.0\naF0.0\naF0.0\naF0.0\naF0.0\naa(lp48\nF1.2412128981489086e-08\naF1.2219891967097976e-08\naF0.0\naF0.0\naF0.0\naF0.0\naF0.0\naF0.0\naF0.0\naF0.0\naF0.0\naF0.0\naF0.0\naF0.0\naF0.0\naF0.0\naF0.0\naF0.0\naF0.0\naF0.0\naF0.0\naF0.0\naF0.0\naF0.0\naF0.0\naF0.0\naF0.0\naF0.0\naF0.0\naF0.0\naF0.0\naF0.0\naF0.0\naF0.0\naF0.25\naF0.0\naF0.0\naF0.0\naF0.0\naF0.0\naF0.0\naF0.0\naF0.0\naF0.0\naF0.0\naF0.0\naF0.0\naF0.0\naF0.0\naF0.0\naF0.0\naF0.0\naF0.0\naF0.0\naF0.0\naF0.0\naF0.0\naF0.0\naF0.0\naF0.0\naF0.0\naF0.0\naF0.0\naF0.0\naF0.0\naF0.0\naF0.0\naF0.0\naF0.0\naF0.0\naF0.0\naF0.0\naF0.0\naF0.0\naF0.0\naF0.0\naF0.0\naF0.0\naF0.0\naF0.0\naF0.0\naF0.0\naF0.0\naF0.0\naF0.0\naF0.0\naF0.0\naF0.0\naF0.0\naF0.0\naa(lp49\nF8.284344248903906e-09\naF8.19458944195512e-09\naF0.0\naF0.0\naF0.0\naF0.0\naF0.0\naF0.0\naF0.0\naF0.0\naF0.0\naF0.0\naF0.0\naF0.0\naF0.0\naF0.0\naF0.0\naF0.0\naF0.0\naF0.0\naF0.0\naF0.0\naF0.0\naF0.0\naF0.0\naF0.0\naF0.0\naF0.0\naF0.0\naF0.0\naF0.0\naF0.0\naF0.0\naF0.0\naF0.0\naF0.25\naF0.0\naF0.0\naF0.0\naF0.0\naF0.0\naF0.0\naF0.0\naF0.0\naF0.0\naF0.0\naF0.0\naF0.0\naF0.0\naF0.0\naF0.0\naF0.0\naF0.0\naF0.0\naF0.0\naF0.0\naF0.0\naF0.0\naF0.0\naF0.0\naF0.0\naF0.0\naF0.0\naF0.0\naF0.0\naF0.0\naF0.0\naF0.0\naF0.0\naF0.0\naF0.0\naF0.0\naF0.0\naF0.0\naF0.0\naF0.0\naF0.0\naF0.0\naF0.0\naF0.0\naF0.0\naF0.0\naF0.0\naF0.0\naF0.0\naF0.0\naF0.0\naF0.0\naF0.0\naF0.0\naa(lp50\nF3.919440943613887e-09\naF3.889089562438667e-09\naF0.0\naF0.0\naF0.0\naF0.0\naF0.0\naF0.0\naF0.0\naF0.0\naF0.0\naF0.0\naF0.0\naF0.0\naF0.0\naF0.0\naF0.0\naF0.0\naF0.0\naF0.0\naF0.0\naF0.0\naF0.0\naF0.0\naF0.0\naF0.0\naF0.0\naF0.0\naF0.0\naF0.0\naF0.0\naF0.0\naF0.0\naF0.0\naF0.0\naF0.0\naF0.25\naF0.0\naF0.0\naF0.0\naF0.0\naF0.0\naF0.0\naF0.0\naF0.0\naF0.0\naF0.0\naF0.0\naF0.0\naF0.0\naF0.0\naF0.0\naF0.0\naF0.0\naF0.0\naF0.0\naF0.0\naF0.0\naF0.0\naF0.0\naF0.0\naF0.0\naF0.0\naF0.0\naF0.0\naF0.0\naF0.0\naF0.0\naF0.0\naF0.0\naF0.0\naF0.0\naF0.0\naF0.0\naF0.0\naF0.0\naF0.0\naF0.0\naF0.0\naF0.0\naF0.0\naF0.0\naF0.0\naF0.0\naF0.0\naF0.0\naF0.0\naF0.0\naF0.0\naF0.0\naa(lp51\nF1.1529539944874793e-09\naF1.1462625355175503e-09\naF0.0\naF0.0\naF0.0\naF0.0\naF0.0\naF0.0\naF0.0\naF0.0\naF0.0\naF0.0\naF0.0\naF0.0\naF0.0\naF0.0\naF0.0\naF0.0\naF0.0\naF0.0\naF0.0\naF0.0\naF0.0\naF0.0\naF0.0\naF0.0\naF0.0\naF0.0\naF0.0\naF0.0\naF0.0\naF0.0\naF0.0\naF0.0\naF0.0\naF0.0\naF0.0\naF0.25\naF0.0\naF0.0\naF0.0\naF0.0\naF0.0\naF0.0\naF0.0\naF0.0\naF0.0\naF0.0\naF0.0\naF0.0\naF0.0\naF0.0\naF0.0\naF0.0\naF0.0\naF0.0\naF0.0\naF0.0\naF0.0\naF0.0\naF0.0\naF0.0\naF0.0\naF0.0\naF0.0\naF0.0\naF0.0\naF0.0\naF0.0\naF0.0\naF0.0\naF0.0\naF0.0\naF0.0\naF0.0\naF0.0\naF0.0\naF0.0\naF0.0\naF0.0\naF0.0\naF0.0\naF0.0\naF0.0\naF0.0\naF0.0\naF0.0\naF0.0\naF0.0\naF0.0\naa(lp52\nF6.30281064575224e-11\naF6.250811651721508e-11\naF0.0\naF0.0\naF0.0\naF0.0\naF0.0\naF0.0\naF0.0\naF0.0\naF0.0\naF0.0\naF0.0\naF0.0\naF0.0\naF0.0\naF0.0\naF0.0\naF0.0\naF0.0\naF0.0\naF0.0\naF0.0\naF0.0\naF0.0\naF0.0\naF0.0\naF0.0\naF0.0\naF0.0\naF0.0\naF0.0\naF0.0\naF0.0\naF0.0\naF0.0\naF0.0\naF0.0\naF2.312356596828769e-12\naF1.607013190334026e-12\naF1.1110611989160042e-12\naF7.162788930286297e-13\naF5.318899909454276e-13\naF3.946692078613252e-13\naF3.28713000845409e-13\naF2.1443719867026568e-13\naF1.3453341357000357e-13\naF7.675872298265756e-14\naF5.4313761740383846e-14\naF3.916204102915434e-14\naF3.4806576646987954e-14\naF-1.2030787473824815e-14\naF-8.011705019261009e-15\naF-8.591344053553338e-15\naF2.9807831198125052e-15\naF1.0694831077772002e-14\naF4.707282421309472e-14\naF9.825510958822966e-14\naF1.7649345802914957e-13\naF2.2863806209821925e-13\naF3.55365791496959e-13\naF4.564970883216565e-13\naF7.360137462940789e-13\naF1.1132165197502502e-12\naF2.3121968660562853e-12\naF1.6054696797206927e-12\naF1.1096721620181967e-12\naF7.145565420899972e-13\naF5.305429778638937e-13\naF3.9361791922773896e-13\naF3.277470761445367e-13\naF2.1347372043025555e-13\naF1.337322236113598e-13\naF7.60131802630658e-14\naF5.3656877550423666e-14\naF3.855547487295278e-14\naF3.429510603528243e-14\naF-1.2054033393218683e-14\naF-8.1019386404856e-15\naF-8.784453107709947e-15\naF2.626099297458668e-15\naF1.0121974377374043e-14\naF4.642838980607215e-14\naF9.740781432992061e-14\naF1.7565938869950903e-13\naF2.278461074869884e-13\naF3.5456999794238396e-13\naF4.5468892984318206e-13\naF7.354230326596734e-13\naF1.1139855650291068e-12\naa(lp53\nF4.016729528711183e-11\naF3.960407698530837e-11\naF0.0\naF0.0\naF0.0\naF0.0\naF0.0\naF0.0\naF0.0\naF0.0\naF0.0\naF0.0\naF0.0\naF0.0\naF0.0\naF0.0\naF0.0\naF0.0\naF0.0\naF0.0\naF0.0\naF0.0\naF0.0\naF0.0\naF0.0\naF0.0\naF0.0\naF0.0\naF0.0\naF0.0\naF0.0\naF0.0\naF0.0\naF0.0\naF0.0\naF0.0\naF0.0\naF0.0\naF1.607013190334026e-12\naF1.298115849445619e-12\naF9.457729288102778e-13\naF6.395413962168562e-13\naF4.624382689204553e-13\naF3.36960635952358e-13\naF2.7839984846321254e-13\naF2.0601373858596865e-13\naF1.3819989845510124e-13\naF8.698272995319145e-14\naF5.915189716918917e-14\naF4.125406025965725e-14\naF3.45442184136202e-14\naF4.0381429170419585e-16\naF8.11975607205245e-15\naF1.2757949420232762e-14\naF2.1468296719114295e-14\naF3.176336137242581e-14\naF5.991877417236499e-14\naF1.1645916374006126e-13\naF1.9575119710063859e-13\naF2.58423444352905e-13\naF3.4272658224897073e-13\naF4.35569989754181e-13\naF6.113620827936698e-13\naF9.555198679892851e-13\naF1.6052829390330158e-12\naF1.2962071798585487e-12\naF9.442362291123515e-13\naF6.378207726514832e-13\naF4.610714038647102e-13\naF3.358851960774271e-13\naF2.774401735992964e-13\naF2.050740861208651e-13\naF1.3738871184139298e-13\naF8.622507740574288e-14\naF5.8501408859614e-14\naF4.0681254128139806e-14\naF3.407264727088405e-14\naF3.202151221684823e-16\naF7.965772565204606e-15\naF1.2495550535851808e-14\naF2.1082637398239807e-14\naF3.116937509069333e-14\naF5.924366007070677e-14\naF1.156138553814673e-13\naF1.9494720170342534e-13\naF2.57446751041735e-13\naF3.4147463387291556e-13\naF4.332458139468405e-13\naF6.096384563665094e-13\naF9.54671366409341e-13\naa(lp54\nF2.351586763537287e-11\naF2.311594857554945e-11\naF0.0\naF0.0\naF0.0\naF0.0\naF0.0\naF0.0\naF0.0\naF0.0\naF0.0\naF0.0\naF0.0\naF0.0\naF0.0\naF0.0\naF0.0\naF0.0\naF0.0\naF0.0\naF0.0\naF0.0\naF0.0\naF0.0\naF0.0\naF0.0\naF0.0\naF0.0\naF0.0\naF0.0\naF0.0\naF0.0\naF0.0\naF0.0\naF0.0\naF0.0\naF0.0\naF0.0\naF1.1110611989160042e-12\naF9.457729288102778e-13\naF7.73182990865832e-13\naF5.383033754759934e-13\naF3.946437277686109e-13\naF2.778121111252254e-13\naF2.266521470454734e-13\naF1.7282413025590642e-13\naF1.2850861595887995e-13\naF8.5222047955307e-14\naF5.885711564251524e-14\naF3.9852560484802694e-14\naF3.271901542592758e-14\naF4.757984480596341e-15\naF1.3037543283243317e-14\naF2.019095716770978e-14\naF2.877816884143283e-14\naF3.3840928988154207e-14\naF5.178089958021272e-14\naF8.903661689775963e-14\naF1.529042418784102e-13\naF2.0693086379810876e-13\naF2.6408945424371223e-13\naF2.9669908266568035e-13\naF3.92421036532646e-13\naF6.129861172057071e-13\naF1.1095813748746335e-12\naF9.445009138919313e-13\naF7.722880118939832e-13\naF5.371236241541706e-13\naF3.935950043270258e-13\naF2.76898752966289e-13\naF2.258363622025449e-13\naF1.720185844170542e-13\naF1.2781503237670132e-13\naF8.458534227308128e-14\naF5.831414569934735e-14\naF3.938827589955046e-14\naF3.2344739574028386e-14\naF4.72838234557661e-15\naF1.297470465427228e-14\naF2.004606864229412e-14\naF2.856370730569638e-14\naF3.34551332985398e-14\naF5.1315671878570993e-14\naF8.847869742530726e-14\naF1.52458261561742e-13\naF2.0635526923724042e-13\naF2.632895457094746e-13\naF2.9495620071475197e-13\naF3.908944260219158e-13\naF6.118421485608754e-13\naa(lp55\nF1.0566738037976808e-11\naF1.029398244171062e-11\naF0.0\naF0.0\naF0.0\naF0.0\naF0.0\naF0.0\naF0.0\naF0.0\naF0.0\naF0.0\naF0.0\naF0.0\naF0.0\naF0.0\naF0.0\naF0.0\naF0.0\naF0.0\naF0.0\naF0.0\naF0.0\naF0.0\naF0.0\naF0.0\naF0.0\naF0.0\naF0.0\naF0.0\naF0.0\naF0.0\naF0.0\naF0.0\naF0.0\naF0.0\naF0.0\naF0.0\naF7.162788930286297e-13\naF6.395413962168562e-13\naF5.383033754759934e-13\naF4.0630605537318245e-13\naF3.046656805945544e-13\naF2.12563265387917e-13\naF1.6569980276142436e-13\naF1.2893281082332532e-13\naF9.789447950819329e-14\naF7.009465010635408e-14\naF4.982555673286011e-14\naF3.363474423250719e-14\naF2.6202241035580137e-14\naF5.538225880681248e-15\naF1.1478810346839399e-14\naF1.7880279066149858e-14\naF2.5189084714021825e-14\naF3.0282328886618936e-14\naF3.908360314316356e-14\naF6.401103641500003e-14\naF1.0744532527403026e-13\naF1.498444095771019e-13\naF1.9072020891445456e-13\naF2.1916828420274573e-13\naF2.5625256627848754e-13\naF3.9543742414464573e-13\naF7.146432963650906e-13\naF6.383099802391215e-13\naF5.374996365737335e-13\naF4.054266941012245e-13\naF3.038966170284404e-13\naF2.1193955901766204e-13\naF1.651069931813282e-13\naF1.2833128820662596e-13\naF9.736616538197124e-14\naF6.961693190007206e-14\naF4.942019975203689e-14\naF3.329760451678128e-14\naF2.593208133844144e-14\naF5.500236327254709e-15\naF1.1424016466926078e-14\naF1.7767593139822674e-14\naF2.503262111468335e-14\naF3.0016180797783706e-14\naF3.87759808739726e-14\naF6.363166908217647e-14\naF1.0715214271526939e-13\naF1.4945867821511492e-13\naF1.901440309902118e-13\naF2.1793341206763517e-13\naF2.549754415051591e-13\naF3.940978564530794e-13\naa(lp56\nF3.592459926015672e-12\naF3.464713071864614e-12\naF0.0\naF0.0\naF0.0\naF0.0\naF0.0\naF0.0\naF0.0\naF0.0\naF0.0\naF0.0\naF0.0\naF0.0\naF0.0\naF0.0\naF0.0\naF0.0\naF0.0\naF0.0\naF0.0\naF0.0\naF0.0\naF0.0\naF0.0\naF0.0\naF0.0\naF0.0\naF0.0\naF0.0\naF0.0\naF0.0\naF0.0\naF0.0\naF0.0\naF0.0\naF0.0\naF0.0\naF5.318899909454276e-13\naF4.624382689204553e-13\naF3.946437277686109e-13\naF3.046656805945544e-13\naF2.5190668122039915e-13\naF1.772741117809629e-13\naF1.3862463832142195e-13\naF1.0578167240165072e-13\naF8.064222787897393e-14\naF5.842472012327468e-14\naF4.5027849396387434e-14\naF3.078640743778463e-14\naF2.3862506093695867e-14\naF5.26366065566833e-15\naF9.588995251851467e-15\naF1.3502613411103637e-14\naF1.958919533156315e-14\naF2.4534778618150022e-14\naF2.8291992327231415e-14\naF3.880440109013309e-14\naF6.652356994907525e-14\naF8.731873595637758e-14\naF1.185529576301146e-13\naF1.4036922502372966e-13\naF1.5343501684858685e-13\naF2.0584082255064634e-13\naF5.307937502970091e-13\naF4.616769268159872e-13\naF3.9430799310391965e-13\naF3.0427313402639327e-13\naF2.51571983748848e-13\naF1.7698274567349003e-13\naF1.3831726329175424e-13\naF1.0542168781470092e-13\naF8.030972796898357e-14\naF5.811470233734327e-14\naF4.475820585182948e-14\naF3.0556047895575424e-14\naF2.3679717255292384e-14\naF5.216501922601598e-15\naF9.53588322421566e-15\naF1.3415010521736185e-14\naF1.947377973113743e-14\naF2.4345716685277788e-14\naF2.8087023074436662e-14\naF3.8545566799659225e-14\naF6.63394384350984e-14\naF8.708306920935996e-14\naF1.1821231694652007e-13\naF1.3961367124419428e-13\naF1.526164022576688e-13\naF2.047284630273951e-13\naa(lp57\nF1.1952526961218571e-12\naF1.0959283017802625e-12\naF0.0\naF0.0\naF0.0\naF0.0\naF0.0\naF0.0\naF0.0\naF0.0\naF0.0\naF0.0\naF0.0\naF0.0\naF0.0\naF0.0\naF0.0\naF0.0\naF0.0\naF0.0\naF0.0\naF0.0\naF0.0\naF0.0\naF0.0\naF0.0\naF0.0\naF0.0\naF0.0\naF0.0\naF0.0\naF0.0\naF0.0\naF0.0\naF0.0\naF0.0\naF0.0\naF0.0\naF3.946692078613252e-13\naF3.36960635952358e-13\naF2.778121111252254e-13\naF2.12563265387917e-13\naF1.772741117809629e-13\naF1.365746925149469e-13\naF1.0814529312088044e-13\naF8.250186646106158e-14\naF6.17245834046586e-14\naF4.46502486726797e-14\naF3.452526005737263e-14\naF2.5386802959305586e-14\naF1.9590055335636067e-14\naF4.729834096777404e-15\naF7.0345622304643465e-15\naF9.755500943859123e-15\naF1.2910953967128072e-14\naF1.6674377754799858e-14\naF2.0102596459930896e-14\naF2.793647963587501e-14\naF4.223468053558638e-14\naF5.665496045662526e-14\naF7.263509215247059e-14\naF9.185860542798744e-14\naF1.0867461497776346e-13\naF1.4335589713522134e-13\naF3.9377783583326376e-13\naF3.362912160496256e-13\naF2.775091344205486e-13\naF2.1221968179449858e-13\naF1.7700372159426693e-13\naF1.3635704759614675e-13\naF1.0790814477589222e-13\naF8.22390856697943e-14\naF6.148015691429064e-14\naF4.440949309241912e-14\naF3.431662850500922e-14\naF2.520608486108406e-14\naF1.9443706150158874e-14\naF4.695214140389904e-15\naF6.9964975604683306e-15\naF9.68948718174273e-15\naF1.2821685216359215e-14\naF1.6529251577249503e-14\naF1.9960052182956895e-14\naF2.774613322398031e-14\naF4.2090494833742446e-14\naF5.649184850203708e-14\naF7.240469856763483e-14\naF9.131627263125953e-14\naF1.0816295614377521e-13\naF1.426408184285464e-13\naa(lp58\nF-9.00835857820911e-13\naF-9.404679470645769e-13\naF0.0\naF0.0\naF0.0\naF0.0\naF0.0\naF0.0\naF0.0\naF0.0\naF0.0\naF0.0\naF0.0\naF0.0\naF0.0\naF0.0\naF0.0\naF0.0\naF0.0\naF0.0\naF0.0\naF0.0\naF0.0\naF0.0\naF0.0\naF0.0\naF0.0\naF0.0\naF0.0\naF0.0\naF0.0\naF0.0\naF0.0\naF0.0\naF0.0\naF0.0\naF0.0\naF0.0\naF3.28713000845409e-13\naF2.7839984846321254e-13\naF2.266521470454734e-13\naF1.6569980276142436e-13\naF1.3862463832142195e-13\naF1.0814529312088044e-13\naF9.184288674046577e-14\naF7.001764970522045e-14\naF5.189434100438777e-14\naF3.61989712912996e-14\naF2.7849600783330585e-14\naF2.0611453291468637e-14\naF1.6704710500520505e-14\naF4.5719188173896014e-15\naF6.6042291623740436e-15\naF8.1026975049429e-15\naF1.0486218132703892e-14\naF1.2172290508366512e-14\naF1.6055876282844356e-14\naF2.352473569824366e-14\naF3.574523640053694e-14\naF4.200210814641862e-14\naF5.3059136301078995e-14\naF5.6832262013989254e-14\naF7.252749594826753e-14\naF1.0416528642919027e-13\naF3.282099381328374e-13\naF2.780102869387057e-13\naF2.2652725916082704e-13\naF1.6548802173431104e-13\naF1.3846717919994605e-13\naF1.0801008350270991e-13\naF9.169009024500992e-14\naF6.983921364026013e-14\naF5.172947646674915e-14\naF3.602610941714931e-14\naF2.7699863941329752e-14\naF2.04793077563164e-14\naF1.659585461428117e-14\naF4.532591040575281e-15\naF6.562917515363188e-15\naF8.040879213950323e-15\naF1.0405222661825475e-14\naF1.2044844759797648e-14\naF1.593541552771568e-14\naF2.3359205985443464e-14\naF3.561319685270351e-14\naF4.1847426808704117e-14\naF5.285720027996537e-14\naF5.6374871102226835e-14\naF7.216082896010192e-14\naF1.0370098731681686e-13\naa(lp59\nF-3.034681459934012e-12\naF-3.070846459380184e-12\naF0.0\naF0.0\naF0.0\naF0.0\naF0.0\naF0.0\naF0.0\naF0.0\naF0.0\naF0.0\naF0.0\naF0.0\naF0.0\naF0.0\naF0.0\naF0.0\naF0.0\naF0.0\naF0.0\naF0.0\naF0.0\naF0.0\naF0.0\naF0.0\naF0.0\naF0.0\naF0.0\naF0.0\naF0.0\naF0.0\naF0.0\naF0.0\naF0.0\naF0.0\naF0.0\naF0.0\naF2.1443719867026568e-13\naF2.0601373858596865e-13\naF1.7282413025590642e-13\naF1.2893281082332532e-13\naF1.0578167240165072e-13\naF8.250186646106158e-14\naF7.001764970522045e-14\naF5.705270852999268e-14\naF4.320848005646246e-14\naF3.0857711995892347e-14\naF2.3255819694181774e-14\naF1.715499138022862e-14\naF1.3704959794726687e-14\naF5.3066398517309665e-15\naF7.575741204948409e-15\naF9.45756487400547e-15\naF1.1218986917369372e-14\naF1.275187799883215e-14\naF1.5421575206799387e-14\naF2.2877332787183446e-14\naF3.442206294610844e-14\naF4.1408313870756574e-14\naF4.638280923768059e-14\naF4.8366349963695006e-14\naF5.171072030729393e-14\naF7.70119000522743e-14\naF2.1392984273317646e-13\naF2.0569589680949499e-13\naF1.727112692203215e-13\naF1.287521758510769e-13\naF1.0564645300802461e-13\naF8.237448096072158e-14\naF6.987647778080196e-14\naF5.688608312937748e-14\naF4.305115950024711e-14\naF3.069498097765704e-14\naF2.3117316546181906e-14\naF1.7036108780758457e-14\naF1.3608480221561751e-14\naF5.257691974315824e-15\naF7.521436098288502e-15\naF9.382825840268851e-15\naF1.1129328120823194e-14\naF1.262375540115576e-14\naF1.5293409964637485e-14\naF2.270812580667338e-14\naF3.4284011740821937e-14\naF4.123684694601623e-14\naF4.615866515201536e-14\naF4.793086786523068e-14\naF5.131226792066002e-14\naF7.651859695876184e-14\naa(lp60\nF-4.0511649918447095e-12\naF-4.073793303557711e-12\naF0.0\naF0.0\naF0.0\naF0.0\naF0.0\naF0.0\naF0.0\naF0.0\naF0.0\naF0.0\naF0.0\naF0.0\naF0.0\naF0.0\naF0.0\naF0.0\naF0.0\naF0.0\naF0.0\naF0.0\naF0.0\naF0.0\naF0.0\naF0.0\naF0.0\naF0.0\naF0.0\naF0.0\naF0.0\naF0.0\naF0.0\naF0.0\naF0.0\naF0.0\naF0.0\naF0.0\naF1.3453341357000357e-13\naF1.3819989845510124e-13\naF1.2850861595887995e-13\naF9.789447950819329e-14\naF8.064222787897393e-14\naF6.17245834046586e-14\naF5.189434100438777e-14\naF4.320848005646246e-14\naF3.474150759363021e-14\naF2.546821333822563e-14\naF1.9233052132958653e-14\naF1.4065546051401139e-14\naF1.1159293115031935e-14\naF4.752129717041798e-15\naF6.812282713689487e-15\naF8.737937282846604e-15\naF1.026872565263948e-14\naF1.0837007622758508e-14\naF1.2168405457595358e-14\naF1.6641662414028288e-14\naF2.547379756247217e-14\naF3.0874493463600305e-14\naF3.233595529653445e-14\naF2.638584259774591e-14\naF2.1625244918453905e-14\naF3.202264629737549e-14\naF1.3415534809666084e-13\naF1.380089692856463e-13\naF1.2846589987702907e-13\naF9.777844184148785e-14\naF8.053844267984078e-14\naF6.161536908216174e-14\naF5.1773588505917754e-14\naF4.306521298422592e-14\naF3.460468635873895e-14\naF2.5330184967093418e-14\naF1.911629779600199e-14\naF1.3967187327017278e-14\naF1.108053110490614e-14\naF4.716622820682376e-15\naF6.774821636183388e-15\naF8.684661826987592e-15\naF1.0209317140231393e-14\naF1.0748348785055114e-14\naF1.2078158763713884e-14\naF1.6524847117689587e-14\naF2.53931946085825e-14\naF3.077156547294977e-14\naF3.220193468842192e-14\naF2.6087021862274058e-14\naF2.132836535246077e-14\naF3.161699961321705e-14\naa(lp61\nF-4.42584230534186e-12\naF-4.440286297707861e-12\naF0.0\naF0.0\naF0.0\naF0.0\naF0.0\naF0.0\naF0.0\naF0.0\naF0.0\naF0.0\naF0.0\naF0.0\naF0.0\naF0.0\naF0.0\naF0.0\naF0.0\naF0.0\naF0.0\naF0.0\naF0.0\naF0.0\naF0.0\naF0.0\naF0.0\naF0.0\naF0.0\naF0.0\naF0.0\naF0.0\naF0.0\naF0.0\naF0.0\naF0.0\naF0.0\naF0.0\naF7.675872298265756e-14\naF8.698272995319145e-14\naF8.5222047955307e-14\naF7.009465010635408e-14\naF5.842472012327468e-14\naF4.46502486726797e-14\naF3.61989712912996e-14\naF3.0857711995892347e-14\naF2.546821333822563e-14\naF1.9835639868191083e-14\naF1.5210734364646267e-14\naF1.117583171192857e-14\naF8.632055887168284e-15\naF3.957786090353705e-15\naF5.5351663949408104e-15\naF7.197106484312263e-15\naF8.512472988980498e-15\naF8.986202342029036e-15\naF9.215352966472559e-15\naF1.2066160324231688e-14\naF1.8157061305014572e-14\naF2.281270668095687e-14\naF2.3486701038695458e-14\naF1.835235892905043e-14\naF8.280423364095397e-15\naF1.099078138229409e-14\naF7.640602431396e-14\naF8.679735728649254e-14\naF8.516305630071953e-14\naF7.000405759527165e-14\naF5.834517897961726e-14\naF4.457133828217152e-14\naF3.610504796653499e-14\naF3.0743269201952975e-14\naF2.535707808612081e-14\naF1.9723114031694378e-14\naF1.5115312210850104e-14\naF1.1096871150904837e-14\naF8.569176266502661e-15\naF3.928473469084882e-15\naF5.505187623376471e-15\naF7.155872049623464e-15\naF8.46977469960817e-15\naF8.926252077136361e-15\naF9.15869188343093e-15\naF1.198945811593222e-14\naF1.8106615441414726e-14\naF2.274775233201053e-14\naF2.3406094765256856e-14\naF1.8165368434341325e-14\naF8.06687902360534e-15\naF1.0654898385465944e-14\naa(lp62\nF-4.553960308174901e-12\naF-4.540204334912122e-12\naF0.0\naF0.0\naF0.0\naF0.0\naF0.0\naF0.0\naF0.0\naF0.0\naF0.0\naF0.0\naF0.0\naF0.0\naF0.0\naF0.0\naF0.0\naF0.0\naF0.0\naF0.0\naF0.0\naF0.0\naF0.0\naF0.0\naF0.0\naF0.0\naF0.0\naF0.0\naF0.0\naF0.0\naF0.0\naF0.0\naF0.0\naF0.0\naF0.0\naF0.0\naF0.0\naF0.0\naF5.4313761740383846e-14\naF5.915189716918917e-14\naF5.885711564251524e-14\naF4.982555673286011e-14\naF4.5027849396387434e-14\naF3.452526005737263e-14\naF2.7849600783330585e-14\naF2.3255819694181774e-14\naF1.9233052132958653e-14\naF1.5210734364646267e-14\naF1.2331273589080664e-14\naF9.1639886893276e-15\naF7.0868155391434985e-15\naF3.1727675722621093e-15\naF4.371373907276618e-15\naF5.4818460326217844e-15\naF6.57429665807372e-15\naF7.124598484784453e-15\naF6.8886677856789706e-15\naF7.783548070522309e-15\naF1.1670729657967016e-14\naF1.3300381314819274e-14\naF1.3700385545188104e-14\naF9.69201883664279e-15\naF-4.25823405239972e-16\naF-6.705410867914212e-15\naF5.408939621442187e-14\naF5.903613853870456e-14\naF5.885470944936808e-14\naF4.980101467999919e-14\naF4.500987582920542e-14\naF3.4495728451276814e-14\naF2.7802016933589608e-14\naF2.3183047432271403e-14\naF1.915767588883327e-14\naF1.5130096166405512e-14\naF1.2260868533441304e-14\naF9.103655575180865e-15\naF7.038907005343812e-15\naF3.1470603080739585e-15\naF4.345989118681562e-15\naF5.449807134457374e-15\naF6.542572764739063e-15\naF7.081841657698298e-15\naF6.852044934018036e-15\naF7.731731267802233e-15\naF1.1641813006736258e-14\naF1.3267688668289198e-14\naF1.3669885303264539e-14\naF9.598399650234756e-15\naF-5.375246639951425e-16\naF-6.948693531174641e-15\naa(lp63\nF-4.285853043013734e-12\naF-4.262741829409789e-12\naF0.0\naF0.0\naF0.0\naF0.0\naF0.0\naF0.0\naF0.0\naF0.0\naF0.0\naF0.0\naF0.0\naF0.0\naF0.0\naF0.0\naF0.0\naF0.0\naF0.0\naF0.0\naF0.0\naF0.0\naF0.0\naF0.0\naF0.0\naF0.0\naF0.0\naF0.0\naF0.0\naF0.0\naF0.0\naF0.0\naF0.0\naF0.0\naF0.0\naF0.0\naF0.0\naF0.0\naF3.916204102915434e-14\naF4.125406025965725e-14\naF3.9852560484802694e-14\naF3.363474423250719e-14\naF3.078640743778463e-14\naF2.5386802959305586e-14\naF2.0611453291468637e-14\naF1.715499138022862e-14\naF1.4065546051401139e-14\naF1.117583171192857e-14\naF9.1639886893276e-15\naF7.167474131702835e-15\naF5.5775699249201046e-15\naF2.545804969167768e-15\naF3.3221982066024192e-15\naF4.127442829574794e-15\naF4.7195704377231875e-15\naF5.085124948495505e-15\naF5.0255018593899066e-15\naF5.673637791882432e-15\naF7.623696831607355e-15\naF8.644272588935946e-15\naF7.568252977687153e-15\naF4.59835281784882e-15\naF-1.989079317109617e-15\naF-7.734986638706253e-15\naF3.9007866602626877e-14\naF4.116526948609778e-14\naF3.985405549378312e-14\naF3.361912650334678e-14\naF3.0778675085669096e-14\naF2.5371209651004843e-14\naF2.0580371570974193e-14\naF1.710449293886977e-14\naF1.4011377043624533e-14\naF1.1114682061444332e-14\naF9.110060556342328e-15\naF7.119721525756293e-15\naF5.538666597189335e-15\naF2.526729582283729e-15\naF3.3035801102185313e-15\naF4.104765746697423e-15\naF4.698154037082713e-15\naF5.0574884937653494e-15\naF5.006121814664388e-15\naF5.642999457616023e-15\naF7.611699867133243e-15\naF8.63778670509037e-15\naF7.573472478890984e-15\naF4.561550717869547e-15\naF-2.0220917039702594e-15\naF-7.865463326823079e-15\naa(lp64\nF-3.911673828525487e-12\naF-3.881431628664705e-12\naF0.0\naF0.0\naF0.0\naF0.0\naF0.0\naF0.0\naF0.0\naF0.0\naF0.0\naF0.0\naF0.0\naF0.0\naF0.0\naF0.0\naF0.0\naF0.0\naF0.0\naF0.0\naF0.0\naF0.0\naF0.0\naF0.0\naF0.0\naF0.0\naF0.0\naF0.0\naF0.0\naF0.0\naF0.0\naF0.0\naF0.0\naF0.0\naF0.0\naF0.0\naF0.0\naF0.0\naF3.4806576646987954e-14\naF3.45442184136202e-14\naF3.271901542592758e-14\naF2.6202241035580137e-14\naF2.3862506093695867e-14\naF1.9590055335636067e-14\naF1.6704710500520505e-14\naF1.3704959794726687e-14\naF1.1159293115031935e-14\naF8.632055887168284e-15\naF7.0868155391434985e-15\naF5.5775699249201046e-15\naF4.510680694969004e-15\naF2.1790802117499576e-15\naF2.8649667314468714e-15\naF3.433471056903459e-15\naF3.936769099515189e-15\naF4.062101761633583e-15\naF4.308003589519489e-15\naF5.142004723028637e-15\naF7.063950699189814e-15\naF7.250221706316597e-15\naF6.344276166630744e-15\naF2.4698546434693815e-15\naF-1.7343766156727205e-15\naF-5.0417502770333516e-15\naF3.4751306000408127e-14\naF3.451795374898485e-14\naF3.2756336307544423e-14\naF2.6210425335239974e-14\naF2.387297378740776e-14\naF1.9588403950676133e-14\naF1.6690555041906586e-14\naF1.3673257109106605e-14\naF1.1123952876771482e-14\naF8.588665617268247e-15\naF7.047812961813723e-15\naF5.541730138142202e-15\naF4.480747297638949e-15\naF2.1619538388950836e-15\naF2.8480481747520734e-15\naF3.413959305092134e-15\naF3.918380761030435e-15\naF4.038365148097805e-15\naF4.29133993038178e-15\naF5.1156525637061125e-15\naF7.053297757118864e-15\naF7.245565740985457e-15\naF6.3534274854197095e-15\naF2.4441056950500214e-15\naF-1.7440964207294442e-15\naF-5.117892952567612e-15\naa(lp65\nF-5.134402066150684e-12\naF-5.145045892013643e-12\naF0.0\naF0.0\naF0.0\naF0.0\naF0.0\naF0.0\naF0.0\naF0.0\naF0.0\naF0.0\naF0.0\naF0.0\naF0.0\naF0.0\naF0.0\naF0.0\naF0.0\naF0.0\naF0.0\naF0.0\naF0.0\naF0.0\naF0.0\naF0.0\naF0.0\naF0.0\naF0.0\naF0.0\naF0.0\naF0.0\naF0.0\naF0.0\naF0.0\naF0.0\naF0.0\naF0.0\naF-1.2030787473824815e-14\naF4.0381429170419585e-16\naF4.757984480596341e-15\naF5.538225880681248e-15\naF5.26366065566833e-15\naF4.729834096777404e-15\naF4.5719188173896014e-15\naF5.3066398517309665e-15\naF4.752129717041798e-15\naF3.957786090353705e-15\naF3.1727675722621093e-15\naF2.545804969167768e-15\naF2.1790802117499576e-15\naF4.57539715752524e-15\naF6.004069519535167e-15\naF7.300497400377512e-15\naF8.50761165360217e-15\naF9.914176285401117e-15\naF1.2190501909223364e-14\naF1.574412480870287e-14\naF2.0522522641867288e-14\naF2.2680101938684778e-14\naF2.312332855061366e-14\naF2.2421346602975184e-14\naF2.1286287593356465e-14\naF2.220714817933562e-14\naF-1.1933378607335794e-14\naF5.025006725497099e-16\naF4.899731013071885e-15\naF5.62798395393815e-15\naF5.351929726610328e-15\naF4.785585771057939e-15\naF4.609396192242442e-15\naF5.3232047805121365e-15\naF4.752799702966474e-15\naF3.942701293169916e-15\naF3.1586542816733674e-15\naF2.5339341604390103e-15\naF2.16926935049082e-15\naF4.53618139882192e-15\naF5.958813862926059e-15\naF7.247787603391464e-15\naF8.448905644351883e-15\naF9.844090327944051e-15\naF1.2113092552578013e-14\naF1.5653231244456812e-14\naF2.043505673351768e-14\naF2.2591080366380676e-14\naF2.303194211947529e-14\naF2.2317512971141827e-14\naF2.120889402127709e-14\naF2.2122538588622012e-14\naa(lp66\nF-5.707268798532933e-12\naF-5.730961069017896e-12\naF0.0\naF0.0\naF0.0\naF0.0\naF0.0\naF0.0\naF0.0\naF0.0\naF0.0\naF0.0\naF0.0\naF0.0\naF0.0\naF0.0\naF0.0\naF0.0\naF0.0\naF0.0\naF0.0\naF0.0\naF0.0\naF0.0\naF0.0\naF0.0\naF0.0\naF0.0\naF0.0\naF0.0\naF0.0\naF0.0\naF0.0\naF0.0\naF0.0\naF0.0\naF0.0\naF0.0\naF-8.011705019261009e-15\naF8.11975607205245e-15\naF1.3037543283243317e-14\naF1.1478810346839399e-14\naF9.588995251851467e-15\naF7.0345622304643465e-15\naF6.6042291623740436e-15\naF7.575741204948409e-15\naF6.812282713689487e-15\naF5.5351663949408104e-15\naF4.371373907276618e-15\naF3.3221982066024192e-15\naF2.8649667314468714e-15\naF6.004069519535167e-15\naF8.252666145280834e-15\naF1.0166736029986305e-14\naF1.2010478145919525e-14\naF1.3936121686886533e-14\naF1.7325565427808963e-14\naF2.275609885429803e-14\naF3.135528550220326e-14\naF3.532799724978006e-14\naF3.7408640213015656e-14\naF3.6356248839219636e-14\naF3.584749536751774e-14\naF3.971003592202697e-14\naF-7.846452734969408e-15\naF8.283106377993546e-15\naF1.323836988840151e-14\naF1.1602503523032775e-14\naF9.706174869176028e-15\naF7.102915882165586e-15\naF6.650449809981983e-15\naF7.592350227093968e-15\naF6.807791819585105e-15\naF5.509249879455862e-15\naF4.347278146952376e-15\naF3.301551923739403e-15\naF2.8482344845891933e-15\naF5.95180714970863e-15\naF8.190706532173206e-15\naF1.009287905420764e-14\naF1.1926395918065987e-14\naF1.3833128738604916e-14\naF1.720744151218876e-14\naF2.2619695460694555e-14\naF3.122459288178047e-14\naF3.518994090120453e-14\naF3.7261880521335673e-14\naF3.618627154326043e-14\naF3.570673985901021e-14\naF3.958611058689325e-14\naa(lp67\nF-5.722956725392316e-12\naF-5.759459229300482e-12\naF0.0\naF0.0\naF0.0\naF0.0\naF0.0\naF0.0\naF0.0\naF0.0\naF0.0\naF0.0\naF0.0\naF0.0\naF0.0\naF0.0\naF0.0\naF0.0\naF0.0\naF0.0\naF0.0\naF0.0\naF0.0\naF0.0\naF0.0\naF0.0\naF0.0\naF0.0\naF0.0\naF0.0\naF0.0\naF0.0\naF0.0\naF0.0\naF0.0\naF0.0\naF0.0\naF0.0\naF-8.591344053553338e-15\naF1.2757949420232762e-14\naF2.019095716770978e-14\naF1.7880279066149858e-14\naF1.3502613411103637e-14\naF9.755500943859123e-15\naF8.1026975049429e-15\naF9.45756487400547e-15\naF8.737937282846604e-15\naF7.197106484312263e-15\naF5.4818460326217844e-15\naF4.127442829574794e-15\naF3.433471056903459e-15\naF7.300497400377512e-15\naF1.0166736029986305e-14\naF1.3014735226754231e-14\naF1.5483462636148398e-14\naF1.8101244841218313e-14\naF2.2423240480420145e-14\naF2.9557262055407245e-14\naF4.093943487547841e-14\naF4.8967577955522696e-14\naF5.272546909353504e-14\naF5.314674922952102e-14\naF5.291341453861646e-14\naF5.944162153550609e-14\naF-8.406826533602104e-15\naF1.2947849067046655e-14\naF2.0424680781906556e-14\naF1.801555344259644e-14\naF1.362552500769104e-14\naF9.821917770539046e-15\naF8.14316361471842e-15\naF9.466503149887555e-15\naF8.723327212988343e-15\naF7.158449115146241e-15\naF5.4469221641408715e-15\naF4.098493533865827e-15\naF3.4104092136727288e-15\naF7.242180156211038e-15\naF1.0096530502500311e-14\naF1.2928722392271662e-14\naF1.5384629879656182e-14\naF1.7978588702400682e-14\naF2.2279977798993412e-14\naF2.939569038394557e-14\naF4.078888761144796e-14\naF4.881032594434812e-14\naF5.2551427329156507e-14\naF5.2935499385323826e-14\naF5.272657642336678e-14\naF5.929253067094569e-14\naa(lp68\nF-5.573148016990035e-12\naF-5.617729830773529e-12\naF0.0\naF0.0\naF0.0\naF0.0\naF0.0\naF0.0\naF0.0\naF0.0\naF0.0\naF0.0\naF0.0\naF0.0\naF0.0\naF0.0\naF0.0\naF0.0\naF0.0\naF0.0\naF0.0\naF0.0\naF0.0\naF0.0\naF0.0\naF0.0\naF0.0\naF0.0\naF0.0\naF0.0\naF0.0\naF0.0\naF0.0\naF0.0\naF0.0\naF0.0\naF0.0\naF0.0\naF2.9807831198125052e-15\naF2.1468296719114295e-14\naF2.877816884143283e-14\naF2.5189084714021825e-14\naF1.958919533156315e-14\naF1.2910953967128072e-14\naF1.0486218132703892e-14\naF1.1218986917369372e-14\naF1.026872565263948e-14\naF8.512472988980498e-15\naF6.57429665807372e-15\naF4.7195704377231875e-15\naF3.936769099515189e-15\naF8.50761165360217e-15\naF1.2010478145919525e-14\naF1.5483462636148398e-14\naF1.9161306476000452e-14\naF2.2559092252900413e-14\naF2.810575676057657e-14\naF3.6507968591486077e-14\naF5.117551043827504e-14\naF6.167603425700606e-14\naF7.059288817493637e-14\naF7.254816669941122e-14\naF7.412922346888454e-14\naF8.00497200493641e-14\naF3.291230529892063e-15\naF2.1759844567637514e-14\naF2.912235516090664e-14\naF2.5401365202094023e-14\naF1.9774222638870305e-14\naF1.3014990612460349e-14\naF1.0551973833375461e-14\naF1.1239426913134373e-14\naF1.0260467677739446e-14\naF8.47315684367355e-15\naF6.53768024530871e-15\naF4.6890149200238125e-15\naF3.913161821583761e-15\naF8.442717185309376e-15\naF1.1932655519445051e-14\naF1.5387323683508532e-14\naF1.9048301009233353e-14\naF2.241574775657024e-14\naF2.7936606970284753e-14\naF3.631466392520243e-14\naF5.0994926358340213e-14\naF6.149055878586211e-14\naF7.039464616439663e-14\naF7.230371695559894e-14\naF7.391408069398103e-14\naF7.98583534603092e-14\naa(lp69\nF-4.866622108498304e-12\naF-4.950915333458368e-12\naF0.0\naF0.0\naF0.0\naF0.0\naF0.0\naF0.0\naF0.0\naF0.0\naF0.0\naF0.0\naF0.0\naF0.0\naF0.0\naF0.0\naF0.0\naF0.0\naF0.0\naF0.0\naF0.0\naF0.0\naF0.0\naF0.0\naF0.0\naF0.0\naF0.0\naF0.0\naF0.0\naF0.0\naF0.0\naF0.0\naF0.0\naF0.0\naF0.0\naF0.0\naF0.0\naF0.0\naF1.0694831077772002e-14\naF3.176336137242581e-14\naF3.3840928988154207e-14\naF3.0282328886618936e-14\naF2.4534778618150022e-14\naF1.6674377754799858e-14\naF1.2172290508366512e-14\naF1.275187799883215e-14\naF1.0837007622758508e-14\naF8.986202342029036e-15\naF7.124598484784453e-15\naF5.085124948495505e-15\naF4.062101761633583e-15\naF9.914176285401117e-15\naF1.3936121686886533e-14\naF1.8101244841218313e-14\naF2.2559092252900413e-14\naF2.8266253387554007e-14\naF3.538484293536196e-14\naF4.605892526734142e-14\naF6.339233979735523e-14\naF7.716651093487347e-14\naF8.974614951549318e-14\naF1.0302267324911825e-13\naF1.0956585845695058e-13\naF1.1998489935981422e-13\naF1.1051406415012419e-14\naF3.208424687350216e-14\naF3.423378415088064e-14\naF3.053715964962425e-14\naF2.4770744330728928e-14\naF1.6822131971336662e-14\naF1.2273332092066731e-14\naF1.2797568126973572e-14\naF1.0840163838580997e-14\naF8.950749980102971e-15\naF7.089979536755309e-15\naF5.0567691582708016e-15\naF4.0411764832127044e-15\naF9.840115725148405e-15\naF1.3845156770869784e-14\naF1.7987554212348386e-14\naF2.2421416838445207e-14\naF2.8087319826519178e-14\naF3.5173320857920047e-14\naF4.582166732451436e-14\naF6.316438959974244e-14\naF7.692920408616254e-14\naF8.946682526371199e-14\naF1.0268253230255534e-13\naF1.092457063611287e-13\naF1.1969599480905727e-13\naa(lp70\nF-3.914110028222252e-12\naF-4.055922331285606e-12\naF0.0\naF0.0\naF0.0\naF0.0\naF0.0\naF0.0\naF0.0\naF0.0\naF0.0\naF0.0\naF0.0\naF0.0\naF0.0\naF0.0\naF0.0\naF0.0\naF0.0\naF0.0\naF0.0\naF0.0\naF0.0\naF0.0\naF0.0\naF0.0\naF0.0\naF0.0\naF0.0\naF0.0\naF0.0\naF0.0\naF0.0\naF0.0\naF0.0\naF0.0\naF0.0\naF0.0\naF4.707282421309472e-14\naF5.991877417236499e-14\naF5.178089958021272e-14\naF3.908360314316356e-14\naF2.8291992327231415e-14\naF2.0102596459930896e-14\naF1.6055876282844356e-14\naF1.5421575206799387e-14\naF1.2168405457595358e-14\naF9.215352966472559e-15\naF6.8886677856789706e-15\naF5.0255018593899066e-15\naF4.308003589519489e-15\naF1.2190501909223364e-14\naF1.7325565427808963e-14\naF2.2423240480420145e-14\naF2.810575676057657e-14\naF3.538484293536196e-14\naF4.741299050499576e-14\naF6.397004207173485e-14\naF8.833829854082906e-14\naF1.0671715253202479e-13\naF1.2435383093350937e-13\naF1.4116644594812886e-13\naF1.6409353478531764e-13\naF1.9166005218023407e-13\naF4.762244322637382e-14\naF6.037479449943397e-14\naF5.23029142517675e-14\naF3.9421074884332064e-14\naF2.859988613560716e-14\naF2.030539599172565e-14\naF1.6201670967955478e-14\naF1.5501187051759948e-14\naF1.2190518120845225e-14\naF9.18530124317098e-15\naF6.856887392105162e-15\naF4.998280072135433e-15\naF4.288001761853331e-15\naF1.2102247035218253e-14\naF1.7214883084632817e-14\naF2.2282533612339317e-14\naF2.792997072742174e-14\naF3.5149314759272927e-14\naF4.7126533599395256e-14\naF6.364260773839222e-14\naF8.800714727315002e-14\naF1.0636410290011635e-13\naF1.2394206253125197e-13\naF1.406625287529254e-13\naF1.6366687928668163e-13\naF1.9138125410499466e-13\naa(lp71\nF-2.9694483511993322e-12\naF-3.2169749163885185e-12\naF0.0\naF0.0\naF0.0\naF0.0\naF0.0\naF0.0\naF0.0\naF0.0\naF0.0\naF0.0\naF0.0\naF0.0\naF0.0\naF0.0\naF0.0\naF0.0\naF0.0\naF0.0\naF0.0\naF0.0\naF0.0\naF0.0\naF0.0\naF0.0\naF0.0\naF0.0\naF0.0\naF0.0\naF0.0\naF0.0\naF0.0\naF0.0\naF0.0\naF0.0\naF0.0\naF0.0\naF9.825510958822966e-14\naF1.1645916374006126e-13\naF8.903661689775963e-14\naF6.401103641500003e-14\naF3.880440109013309e-14\naF2.793647963587501e-14\naF2.352473569824366e-14\naF2.2877332787183446e-14\naF1.6641662414028288e-14\naF1.2066160324231688e-14\naF7.783548070522309e-15\naF5.673637791882432e-15\naF5.142004723028637e-15\naF1.574412480870287e-14\naF2.275609885429803e-14\naF2.9557262055407245e-14\naF3.6507968591486077e-14\naF4.605892526734142e-14\naF6.397004207173485e-14\naF9.313841927401242e-14\naF1.302461516956554e-13\naF1.5835523720399778e-13\naF1.8093310056122757e-13\naF2.032302652202537e-13\naF2.409478911787117e-13\naF3.179982094132556e-13\naF9.885766118165845e-14\naF1.1690345995911845e-13\naF8.954064553727887e-14\naF6.430450282554468e-14\naF3.90930537622485e-14\naF2.813331094990376e-14\naF2.3664172749864848e-14\naF2.294371928483522e-14\naF1.663842549187906e-14\naF1.2000205941280564e-14\naF7.722045840035057e-15\naF5.6240506145004036e-15\naF5.1018862134472816e-15\naF1.562171914458354e-14\naF2.259868937978097e-14\naF2.93548242699536e-14\naF3.6253778866326786e-14\naF4.571636506455589e-14\naF6.355052460003737e-14\naF9.265296988468213e-14\naF1.2973350216646776e-13\naF1.5778882209486195e-13\naF1.8026660822658489e-13\naF2.0239391378354924e-13\naF2.402362326334195e-13\naF3.1760673818178235e-13\naa(lp72\nF-2.9102570351455205e-13\naF-6.47319264235839e-13\naF0.0\naF0.0\naF0.0\naF0.0\naF0.0\naF0.0\naF0.0\naF0.0\naF0.0\naF0.0\naF0.0\naF0.0\naF0.0\naF0.0\naF0.0\naF0.0\naF0.0\naF0.0\naF0.0\naF0.0\naF0.0\naF0.0\naF0.0\naF0.0\naF0.0\naF0.0\naF0.0\naF0.0\naF0.0\naF0.0\naF0.0\naF0.0\naF0.0\naF0.0\naF0.0\naF0.0\naF1.7649345802914957e-13\naF1.9575119710063859e-13\naF1.529042418784102e-13\naF1.0744532527403026e-13\naF6.652356994907525e-14\naF4.223468053558638e-14\naF3.574523640053694e-14\naF3.442206294610844e-14\naF2.547379756247217e-14\naF1.8157061305014572e-14\naF1.1670729657967016e-14\naF7.623696831607355e-15\naF7.063950699189814e-15\naF2.0522522641867288e-14\naF3.135528550220326e-14\naF4.093943487547841e-14\naF5.117551043827504e-14\naF6.339233979735523e-14\naF8.833829854082906e-14\naF1.302461516956554e-13\naF1.9161930857324575e-13\naF2.3457435611063286e-13\naF2.7323857189916776e-13\naF3.012099100203655e-13\naF3.5527194592017233e-13\naF4.716390129624712e-13\naF1.7741459797132304e-13\naF1.9644050727253903e-13\naF1.5359453269323354e-13\naF1.0783334882753204e-13\naF6.68946767830229e-14\naF4.246562158754474e-14\naF3.590539899455422e-14\naF3.447212974008961e-14\naF2.5437068125016484e-14\naF1.8036778000325548e-14\naF1.156057176755325e-14\naF7.534006937818361e-15\naF6.9914900250180534e-15\naF2.0356260308614048e-14\naF3.1139111660408295e-14\naF4.0657867585228857e-14\naF5.0817850676274803e-14\naF6.291020486000397e-14\naF8.773379760368876e-14\naF1.2954830091961317e-13\naF1.9087955467313514e-13\naF2.337257476899416e-13\naF2.7223163326557564e-13\naF2.9995268589846235e-13\naF3.5414067753735646e-13\naF4.710143653390545e-13\naa(lp73\nF7.124508419851624e-12\naF6.656260929493605e-12\naF0.0\naF0.0\naF0.0\naF0.0\naF0.0\naF0.0\naF0.0\naF0.0\naF0.0\naF0.0\naF0.0\naF0.0\naF0.0\naF0.0\naF0.0\naF0.0\naF0.0\naF0.0\naF0.0\naF0.0\naF0.0\naF0.0\naF0.0\naF0.0\naF0.0\naF0.0\naF0.0\naF0.0\naF0.0\naF0.0\naF0.0\naF0.0\naF0.0\naF0.0\naF0.0\naF0.0\naF2.2863806209821925e-13\naF2.58423444352905e-13\naF2.0693086379810876e-13\naF1.498444095771019e-13\naF8.731873595637758e-14\naF5.665496045662526e-14\naF4.200210814641862e-14\naF4.1408313870756574e-14\naF3.0874493463600305e-14\naF2.281270668095687e-14\naF1.3300381314819274e-14\naF8.644272588935946e-15\naF7.250221706316597e-15\naF2.2680101938684778e-14\naF3.532799724978006e-14\naF4.8967577955522696e-14\naF6.167603425700606e-14\naF7.716651093487347e-14\naF1.0671715253202479e-13\naF1.5835523720399778e-13\naF2.3457435611063286e-13\naF3.0855806253588284e-13\naF3.667054542363924e-13\naF4.206966201479672e-13\naF4.946077298158238e-13\naF6.499181446641227e-13\naF2.2957104377522426e-13\naF2.590827495876136e-13\naF2.0757207528403428e-13\naF1.5012035966608354e-13\naF8.755848325678465e-14\naF5.677046315066564e-14\naF4.205376749839558e-14\naF4.136700687052212e-14\naF3.076060100585838e-14\naF2.261910367178683e-14\naF1.3131773754780477e-14\naF8.515126276299583e-15\naF7.147960834391343e-15\naF2.253542919645448e-14\naF3.513017069258761e-14\naF4.869376693002951e-14\naF6.131824212396873e-14\naF7.667725574875627e-14\naF1.0608504686242386e-13\naF1.576386935050879e-13\naF2.3381515041582354e-13\naF3.0766681265604635e-13\naF3.655948148229566e-13\naF4.192523581846983e-13\naF4.932227429689721e-13\naF6.491929359241598e-13\naa(lp74\nF1.7857018067742342e-11\naF1.729455373592737e-11\naF0.0\naF0.0\naF0.0\naF0.0\naF0.0\naF0.0\naF0.0\naF0.0\naF0.0\naF0.0\naF0.0\naF0.0\naF0.0\naF0.0\naF0.0\naF0.0\naF0.0\naF0.0\naF0.0\naF0.0\naF0.0\naF0.0\naF0.0\naF0.0\naF0.0\naF0.0\naF0.0\naF0.0\naF0.0\naF0.0\naF0.0\naF0.0\naF0.0\naF0.0\naF0.0\naF0.0\naF3.55365791496959e-13\naF3.4272658224897073e-13\naF2.6408945424371223e-13\naF1.9072020891445456e-13\naF1.185529576301146e-13\naF7.263509215247059e-14\naF5.3059136301078995e-14\naF4.638280923768059e-14\naF3.233595529653445e-14\naF2.3486701038695458e-14\naF1.3700385545188104e-14\naF7.568252977687153e-15\naF6.344276166630744e-15\naF2.312332855061366e-14\naF3.7408640213015656e-14\naF5.272546909353504e-14\naF7.059288817493637e-14\naF8.974614951549318e-14\naF1.2435383093350937e-13\naF1.8093310056122757e-13\naF2.7323857189916776e-13\naF3.667054542363924e-13\naF4.678137406173189e-13\naF5.552956885722157e-13\naF6.655634262388593e-13\naF8.399113385646691e-13\naF3.5698581423466583e-13\naF3.438071589552029e-13\naF2.651040870038501e-13\naF1.9121785035415267e-13\naF1.1894572281187529e-13\naF7.283189940676346e-14\naF5.315512206598304e-14\naF4.6345835726291915e-14\naF3.223041877509416e-14\naF2.3286342340688253e-14\naF1.3525541952730798e-14\naF7.43786474988775e-15\naF6.243692812297819e-15\naF2.3004820541194897e-14\naF3.723819013495017e-14\naF5.247668908701565e-14\naF7.024308441914289e-14\naF8.926169124827901e-14\naF1.2371442939105099e-13\naF1.8020240783732593e-13\naF2.7244772897764713e-13\naF3.657703738094125e-13\naF4.666497212115725e-13\naF5.537885189858653e-13\naF6.641243946253998e-13\naF8.391687967834409e-13\naa(lp75\nF3.435429593027626e-11\naF3.348115992514885e-11\naF0.0\naF0.0\naF0.0\naF0.0\naF0.0\naF0.0\naF0.0\naF0.0\naF0.0\naF0.0\naF0.0\naF0.0\naF0.0\naF0.0\naF0.0\naF0.0\naF0.0\naF0.0\naF0.0\naF0.0\naF0.0\naF0.0\naF0.0\naF0.0\naF0.0\naF0.0\naF0.0\naF0.0\naF0.0\naF0.0\naF0.0\naF0.0\naF0.0\naF0.0\naF0.0\naF0.0\naF4.564970883216565e-13\naF4.35569989754181e-13\naF2.9669908266568035e-13\naF2.1916828420274573e-13\naF1.4036922502372966e-13\naF9.185860542798744e-14\naF5.6832262013989254e-14\naF4.8366349963695006e-14\naF2.638584259774591e-14\naF1.835235892905043e-14\naF9.69201883664279e-15\naF4.59835281784882e-15\naF2.4698546434693815e-15\naF2.2421346602975184e-14\naF3.6356248839219636e-14\naF5.314674922952102e-14\naF7.254816669941122e-14\naF1.0302267324911825e-13\naF1.4116644594812886e-13\naF2.032302652202537e-13\naF3.012099100203655e-13\naF4.206966201479672e-13\naF5.552956885722157e-13\naF7.550882045974427e-13\naF9.314417877885751e-13\naF1.1502165510912931e-12\naF4.582309437296386e-13\naF4.365755123794478e-13\naF2.976138930850728e-13\naF2.1957276926259003e-13\naF1.4074201805568643e-13\naF9.208668618815328e-14\naF5.694140879959117e-14\naF4.834465012293408e-14\naF2.6277576897022593e-14\naF1.81490556678909e-14\naF9.514929847765931e-15\naF4.4725403043278825e-15\naF2.37390803574096e-15\naF2.2335730015161457e-14\naF3.6202854738079e-14\naF5.290169577617137e-14\naF7.217018036902251e-14\naF1.0250799226931594e-13\naF1.404981391362373e-13\naF2.0248728699804703e-13\naF3.003792391856863e-13\naF4.1967276866989944e-13\naF5.538393685437794e-13\naF7.532975089957831e-13\naF9.296834835050898e-13\naF1.149235515010167e-12\naa(lp76\nF5.463451405047335e-11\naF5.342572435829362e-11\naF0.0\naF0.0\naF0.0\naF0.0\naF0.0\naF0.0\naF0.0\naF0.0\naF0.0\naF0.0\naF0.0\naF0.0\naF0.0\naF0.0\naF0.0\naF0.0\naF0.0\naF0.0\naF0.0\naF0.0\naF0.0\naF0.0\naF0.0\naF0.0\naF0.0\naF0.0\naF0.0\naF0.0\naF0.0\naF0.0\naF0.0\naF0.0\naF0.0\naF0.0\naF0.0\naF0.0\naF7.360137462940789e-13\naF6.113620827936698e-13\naF3.92421036532646e-13\naF2.5625256627848754e-13\naF1.5343501684858685e-13\naF1.0867461497776346e-13\naF7.252749594826753e-14\naF5.171072030729393e-14\naF2.1625244918453905e-14\naF8.280423364095397e-15\naF-4.25823405239972e-16\naF-1.989079317109617e-15\naF-1.7343766156727205e-15\naF2.1286287593356465e-14\naF3.584749536751774e-14\naF5.291341453861646e-14\naF7.412922346888454e-14\naF1.0956585845695058e-13\naF1.6409353478531764e-13\naF2.409478911787117e-13\naF3.5527194592017233e-13\naF4.946077298158238e-13\naF6.655634262388593e-13\naF9.314417877885751e-13\naF1.255678989157289e-12\naF1.5831976869096496e-12\naF7.387144550860609e-13\naF6.129151391545575e-13\naF3.936258372467197e-13\naF2.5667086427752975e-13\naF1.537550901983719e-13\naF1.0888934123204443e-13\naF7.259965027442265e-14\naF5.167831299408129e-14\naF2.14922810174942e-14\naF8.042047161223423e-15\naF-6.303259834489482e-16\naF-2.1338868254696454e-15\naF-1.852188107059226e-15\naF2.123032036059191e-14\naF3.571051386049168e-14\naF5.2650522579893396e-14\naF7.367774770911791e-14\naF1.0892286316051884e-13\naF1.6326106743920604e-13\naF2.400030658706926e-13\naF3.541906893114638e-13\naF4.932787931846822e-13\naF6.637287177556436e-13\naF9.292417101168167e-13\naF1.2539417140088192e-12\naF1.5827935921578544e-12\naa(lp77\nF7.48433505558127e-11\naF7.306205787978658e-11\naF0.0\naF0.0\naF0.0\naF0.0\naF0.0\naF0.0\naF0.0\naF0.0\naF0.0\naF0.0\naF0.0\naF0.0\naF0.0\naF0.0\naF0.0\naF0.0\naF0.0\naF0.0\naF0.0\naF0.0\naF0.0\naF0.0\naF0.0\naF0.0\naF0.0\naF0.0\naF0.0\naF0.0\naF0.0\naF0.0\naF0.0\naF0.0\naF0.0\naF0.0\naF0.0\naF0.0\naF1.1132165197502502e-12\naF9.555198679892851e-13\naF6.129861172057071e-13\naF3.9543742414464573e-13\naF2.0584082255064634e-13\naF1.4335589713522134e-13\naF1.0416528642919027e-13\naF7.70119000522743e-14\naF3.202264629737549e-14\naF1.099078138229409e-14\naF-6.705410867914212e-15\naF-7.734986638706253e-15\naF-5.0417502770333516e-15\naF2.220714817933562e-14\naF3.971003592202697e-14\naF5.944162153550609e-14\naF8.00497200493641e-14\naF1.1998489935981422e-13\naF1.9166005218023407e-13\naF3.179982094132556e-13\naF4.716390129624712e-13\naF6.499181446641227e-13\naF8.399113385646691e-13\naF1.1502165510912931e-12\naF1.5831976869096496e-12\naF2.240598933867103e-12\naF1.1154953994577476e-12\naF9.563593036545651e-13\naF6.132056938541641e-13\naF3.948564133405118e-13\naF2.0531977793547068e-13\naF1.4304856884643767e-13\naF1.037964779355665e-13\naF7.665856526222136e-14\naF3.160279272926873e-14\naF1.050246344564385e-14\naF-7.10274961630613e-15\naF-8.005312459383614e-15\naF-5.273997497555845e-15\naF2.2078032035348336e-14\naF3.945306844785463e-14\naF5.900151076100439e-14\naF7.935382952393343e-14\naF1.1901094318581719e-13\naF1.9042562312174506e-13\naF3.166296510904985e-13\naF4.700547573749678e-13\naF6.479668088398734e-13\naF8.372416171376738e-13\naF1.146935094505761e-12\naF1.5807934580489304e-12\naF2.240680654594886e-12\naa(lp78\nF6.301846074829485e-11\naF6.250458279544659e-11\naF0.0\naF0.0\naF0.0\naF0.0\naF0.0\naF0.0\naF0.0\naF0.0\naF0.0\naF0.0\naF0.0\naF0.0\naF0.0\naF0.0\naF0.0\naF0.0\naF0.0\naF0.0\naF0.0\naF0.0\naF0.0\naF0.0\naF0.0\naF0.0\naF0.0\naF0.0\naF0.0\naF0.0\naF0.0\naF0.0\naF0.0\naF0.0\naF0.0\naF0.0\naF0.0\naF0.0\naF2.3121968660562853e-12\naF1.6052829390330158e-12\naF1.1095813748746335e-12\naF7.146432963650906e-13\naF5.307937502970091e-13\naF3.9377783583326376e-13\naF3.282099381328374e-13\naF2.1392984273317646e-13\naF1.3415534809666084e-13\naF7.640602431396e-14\naF5.408939621442187e-14\naF3.9007866602626877e-14\naF3.4751306000408127e-14\naF-1.1933378607335794e-14\naF-7.846452734969408e-15\naF-8.406826533602104e-15\naF3.291230529892063e-15\naF1.1051406415012419e-14\naF4.762244322637382e-14\naF9.885766118165845e-14\naF1.7741459797132304e-13\naF2.2957104377522426e-13\naF3.5698581423466583e-13\naF4.582309437296386e-13\naF7.387144550860609e-13\naF1.1154953994577476e-12\naF2.3121658165880306e-12\naF1.6038343973970207e-12\naF1.1082688682070929e-12\naF7.129713883281712e-13\naF5.294862111456253e-13\naF3.9275081436392563e-13\naF3.2726405461772535e-13\naF2.1297980227143534e-13\naF1.3336470255903182e-13\naF7.566714091278089e-14\naF5.3437669460945375e-14\naF3.840483589529125e-14\naF3.424244225337384e-14\naF-1.1956323691997443e-14\naF-7.936084634091298e-15\naF-8.598531316693026e-15\naF2.9382066558896457e-15\naF1.0479632385747639e-14\naF4.6979355331651016e-14\naF9.801151378683548e-14\naF1.7658472500509018e-13\naF2.287850161661019e-13\naF3.562015860027187e-13\naF4.564359967381955e-13\naF7.381484938432388e-13\naF1.11629580936878e-12\naa(lp79\nF4.011998067992978e-11\naF3.9561042158910725e-11\naF0.0\naF0.0\naF0.0\naF0.0\naF0.0\naF0.0\naF0.0\naF0.0\naF0.0\naF0.0\naF0.0\naF0.0\naF0.0\naF0.0\naF0.0\naF0.0\naF0.0\naF0.0\naF0.0\naF0.0\naF0.0\naF0.0\naF0.0\naF0.0\naF0.0\naF0.0\naF0.0\naF0.0\naF0.0\naF0.0\naF0.0\naF0.0\naF0.0\naF0.0\naF0.0\naF0.0\naF1.6054696797206927e-12\naF1.2962071798585487e-12\naF9.445009138919313e-13\naF6.383099802391215e-13\naF4.616769268159872e-13\naF3.362912160496256e-13\naF2.780102869387057e-13\naF2.0569589680949499e-13\naF1.380089692856463e-13\naF8.679735728649254e-14\naF5.903613853870456e-14\naF4.116526948609778e-14\naF3.451795374898485e-14\naF5.025006725497099e-16\naF8.283106377993546e-15\naF1.2947849067046655e-14\naF2.1759844567637514e-14\naF3.208424687350216e-14\naF6.037479449943397e-14\naF1.1690345995911845e-13\naF1.9644050727253903e-13\naF2.590827495876136e-13\naF3.438071589552029e-13\naF4.365755123794478e-13\naF6.129151391545575e-13\naF9.563593036545651e-13\naF1.6038343973970207e-12\naF1.2943814305098218e-12\naF9.430315815829192e-13\naF6.366366921118312e-13\naF4.603456783198148e-13\naF3.352389325382766e-13\naF2.77068774463165e-13\naF2.047689342777538e-13\naF1.372073367767168e-13\naF8.604583156657949e-14\naF5.839022925790533e-14\naF4.0595735266724446e-14\naF3.404878663676555e-14\naF4.1922499111724854e-16\naF8.129791426052304e-15\naF1.268681351165251e-14\naF2.1375772874032242e-14\naF3.149152813236915e-14\naF5.970108064096483e-14\naF1.1606030130830924e-13\naF1.9564186960220046e-13\naF2.581141186740456e-13\naF3.425675590961658e-13\naF4.3426768397989297e-13\naF6.112148110431675e-13\naF9.555398258006368e-13\naa(lp80\nF2.3360886508828627e-11\naF2.2966199286328487e-11\naF0.0\naF0.0\naF0.0\naF0.0\naF0.0\naF0.0\naF0.0\naF0.0\naF0.0\naF0.0\naF0.0\naF0.0\naF0.0\naF0.0\naF0.0\naF0.0\naF0.0\naF0.0\naF0.0\naF0.0\naF0.0\naF0.0\naF0.0\naF0.0\naF0.0\naF0.0\naF0.0\naF0.0\naF0.0\naF0.0\naF0.0\naF0.0\naF0.0\naF0.0\naF0.0\naF0.0\naF1.1096721620181967e-12\naF9.442362291123515e-13\naF7.722880118939832e-13\naF5.374996365737335e-13\naF3.9430799310391965e-13\naF2.775091344205486e-13\naF2.2652725916082704e-13\naF1.727112692203215e-13\naF1.2846589987702907e-13\naF8.516305630071953e-14\naF5.885470944936808e-14\naF3.985405549378312e-14\naF3.2756336307544423e-14\naF4.899731013071885e-15\naF1.323836988840151e-14\naF2.0424680781906556e-14\naF2.912235516090664e-14\naF3.423378415088064e-14\naF5.23029142517675e-14\naF8.954064553727887e-14\naF1.5359453269323354e-13\naF2.0757207528403428e-13\naF2.651040870038501e-13\naF2.976138930850728e-13\naF3.936258372467197e-13\naF6.132056938541641e-13\naF1.1082688682070929e-12\naF9.430315815829192e-13\naF7.71455640659096e-13\naF5.363651283395629e-13\naF3.9329417785072437e-13\naF2.7661860699570245e-13\naF2.2572930013382293e-13\naF1.719178016182675e-13\naF1.2778183433814153e-13\naF8.453245982492576e-14\naF5.831629270485595e-14\naF3.9392892979643804e-14\naF3.238438477659335e-14\naF4.870085702824351e-15\naF1.3175872818471276e-14\naF2.028077344306194e-14\naF2.890897246048674e-14\naF3.384852362021177e-14\naF5.1838443959014863e-14\naF8.89834680654328e-14\naF1.5315194591904838e-13\naF2.0700298647575288e-13\naF2.643155384241633e-13\naF2.9588544996638893e-13\naF3.921214570633956e-13\naF6.120834803892953e-13\naa(lp81\nF1.0428923491429403e-11\naF1.0159192936009518e-11\naF0.0\naF0.0\naF0.0\naF0.0\naF0.0\naF0.0\naF0.0\naF0.0\naF0.0\naF0.0\naF0.0\naF0.0\naF0.0\naF0.0\naF0.0\naF0.0\naF0.0\naF0.0\naF0.0\naF0.0\naF0.0\naF0.0\naF0.0\naF0.0\naF0.0\naF0.0\naF0.0\naF0.0\naF0.0\naF0.0\naF0.0\naF0.0\naF0.0\naF0.0\naF0.0\naF0.0\naF7.145565420899972e-13\naF6.378207726514832e-13\naF5.371236241541706e-13\naF4.054266941012245e-13\naF3.0427313402639327e-13\naF2.1221968179449858e-13\naF1.6548802173431104e-13\naF1.287521758510769e-13\naF9.777844184148785e-14\naF7.000405759527165e-14\naF4.980101467999919e-14\naF3.361912650334678e-14\naF2.6210425335239974e-14\naF5.62798395393815e-15\naF1.1602503523032775e-14\naF1.801555344259644e-14\naF2.5401365202094023e-14\naF3.053715964962425e-14\naF3.9421074884332064e-14\naF6.430450282554468e-14\naF1.0783334882753204e-13\naF1.5012035966608354e-13\naF1.9121785035415267e-13\naF2.1957276926259003e-13\naF2.5667086427752975e-13\naF3.948564133405118e-13\naF7.129713883281712e-13\naF6.366366921118312e-13\naF5.363651283395629e-13\naF4.0458449903692483e-13\naF3.0353330536184083e-13\naF2.1161629095351684e-13\naF1.6491077388919516e-13\naF1.281613819159377e-13\naF9.725851125080298e-14\naF6.953224744240073e-14\naF4.940013248366614e-14\naF3.328517788817491e-14\naF2.5942653889291465e-14\naF5.590133169515509e-15\naF1.1548173189064903e-14\naF1.790397247907067e-14\naF2.5246028885338037e-14\naF3.027205685454705e-14\naF3.911449664578481e-14\naF6.392645437579873e-14\naF1.0754268279724217e-13\naF1.4973995134265943e-13\naF1.9065059576842025e-13\naF2.18351252226862e-13\naF2.5541080273224277e-13\naF3.935331423872277e-13\naa(lp82\nF3.467551829844419e-12\naF3.342111754759433e-12\naF0.0\naF0.0\naF0.0\naF0.0\naF0.0\naF0.0\naF0.0\naF0.0\naF0.0\naF0.0\naF0.0\naF0.0\naF0.0\naF0.0\naF0.0\naF0.0\naF0.0\naF0.0\naF0.0\naF0.0\naF0.0\naF0.0\naF0.0\naF0.0\naF0.0\naF0.0\naF0.0\naF0.0\naF0.0\naF0.0\naF0.0\naF0.0\naF0.0\naF0.0\naF0.0\naF0.0\naF5.305429778638937e-13\naF4.610714038647102e-13\naF3.935950043270258e-13\naF3.038966170284404e-13\naF2.51571983748848e-13\naF1.7700372159426693e-13\naF1.3846717919994605e-13\naF1.0564645300802461e-13\naF8.053844267984078e-14\naF5.834517897961726e-14\naF4.500987582920542e-14\naF3.0778675085669096e-14\naF2.387297378740776e-14\naF5.351929726610328e-15\naF9.706174869176028e-15\naF1.362552500769104e-14\naF1.9774222638870305e-14\naF2.4770744330728928e-14\naF2.859988613560716e-14\naF3.90930537622485e-14\naF6.68946767830229e-14\naF8.755848325678465e-14\naF1.1894572281187529e-13\naF1.4074201805568643e-13\naF1.537550901983719e-13\naF2.0531977793547068e-13\naF5.294862111456253e-13\naF4.603456783198148e-13\naF3.9329417785072437e-13\naF3.0353330536184083e-13\naF2.5126176205781616e-13\naF1.767296668787954e-13\naF1.3817347681484387e-13\naF1.0529596307724473e-13\naF8.021329616587967e-14\naF5.804031524621033e-14\naF4.4744164931942996e-14\naF3.055109939008323e-14\naF2.3692283404404015e-14\naF5.30474376977289e-15\naF9.653287113794165e-15\naF1.3538653741298262e-14\naF1.9659520918191444e-14\naF2.4582289742946543e-14\naF2.8395617751951323e-14\naF3.883498081927526e-14\naF6.671233802331241e-14\naF8.732652360631089e-14\naF1.1861136299901964e-13\naF1.399959263783582e-13\naF1.5294941176782794e-13\naF2.0421858488160489e-13\naa(lp83\nF1.1107695968594732e-12\naF1.0124687795620218e-12\naF0.0\naF0.0\naF0.0\naF0.0\naF0.0\naF0.0\naF0.0\naF0.0\naF0.0\naF0.0\naF0.0\naF0.0\naF0.0\naF0.0\naF0.0\naF0.0\naF0.0\naF0.0\naF0.0\naF0.0\naF0.0\naF0.0\naF0.0\naF0.0\naF0.0\naF0.0\naF0.0\naF0.0\naF0.0\naF0.0\naF0.0\naF0.0\naF0.0\naF0.0\naF0.0\naF0.0\naF3.9361791922773896e-13\naF3.358851960774271e-13\naF2.76898752966289e-13\naF2.1193955901766204e-13\naF1.7698274567349003e-13\naF1.3635704759614675e-13\naF1.0801008350270991e-13\naF8.237448096072158e-14\naF6.161536908216174e-14\naF4.457133828217152e-14\naF3.4495728451276814e-14\naF2.5371209651004843e-14\naF1.9588403950676133e-14\naF4.785585771057939e-15\naF7.102915882165586e-15\naF9.821917770539046e-15\naF1.3014990612460349e-14\naF1.6822131971336662e-14\naF2.030539599172565e-14\naF2.813331094990376e-14\naF4.246562158754474e-14\naF5.677046315066564e-14\naF7.283189940676346e-14\naF9.208668618815328e-14\naF1.0888934123204443e-13\naF1.4304856884643767e-13\naF3.9275081436392563e-13\naF3.352389325382766e-13\naF2.7661860699570245e-13\naF2.1161629095351684e-13\naF1.767296668787954e-13\naF1.361526996498273e-13\naF1.0778340010723608e-13\naF8.211933816439648e-14\naF6.137678569346521e-14\naF4.433481324415552e-14\naF3.429035861297517e-14\naF2.5192888206279215e-14\naF1.9443831186524045e-14\naF4.751062977393425e-15\naF7.065153314658019e-15\naF9.756633322099821e-15\naF1.2926375498405721e-14\naF1.6677697672919995e-14\naF2.0163706780794655e-14\naF2.794414652207711e-14\naF4.232318240873818e-14\naF5.6610782188122e-14\naF7.260620047617964e-14\naF9.155210314831364e-14\naF1.0838747322571292e-13\naF1.4234274510814784e-13\naa(lp84\nF-9.618715332330297e-13\naF-1.0005508605960216e-12\naF0.0\naF0.0\naF0.0\naF0.0\naF0.0\naF0.0\naF0.0\naF0.0\naF0.0\naF0.0\naF0.0\naF0.0\naF0.0\naF0.0\naF0.0\naF0.0\naF0.0\naF0.0\naF0.0\naF0.0\naF0.0\naF0.0\naF0.0\naF0.0\naF0.0\naF0.0\naF0.0\naF0.0\naF0.0\naF0.0\naF0.0\naF0.0\naF0.0\naF0.0\naF0.0\naF0.0\naF3.277470761445367e-13\naF2.774401735992964e-13\naF2.258363622025449e-13\naF1.651069931813282e-13\naF1.3831726329175424e-13\naF1.0790814477589222e-13\naF9.169009024500992e-14\naF6.987647778080196e-14\naF5.1773588505917754e-14\naF3.610504796653499e-14\naF2.7802016933589608e-14\naF2.0580371570974193e-14\naF1.6690555041906586e-14\naF4.609396192242442e-15\naF6.650449809981983e-15\naF8.14316361471842e-15\naF1.0551973833375461e-14\naF1.2273332092066731e-14\naF1.6201670967955478e-14\naF2.3664172749864848e-14\naF3.590539899455422e-14\naF4.205376749839558e-14\naF5.315512206598304e-14\naF5.694140879959117e-14\naF7.259965027442265e-14\naF1.037964779355665e-13\naF3.2726405461772535e-13\naF2.77068774463165e-13\naF2.2572930013382293e-13\naF1.6491077388919516e-13\naF1.3817347681484387e-13\naF1.0778340010723608e-13\naF9.154616153472129e-14\naF6.97047815952167e-14\naF5.1614011717246305e-14\naF3.593609832934615e-14\naF2.7655351664540838e-14\naF2.0450512217016575e-14\naF1.658344353877601e-14\naF4.570303720299607e-15\naF6.6095495216779186e-15\naF8.082146857344097e-15\naF1.0471771211166362e-14\naF1.2146635808408292e-14\naF1.6082097181501206e-14\naF2.3499839287147772e-14\naF3.577506031771661e-14\naF4.190187640535879e-14\naF5.295675693658905e-14\naF5.6489237137185126e-14\naF7.223964300244104e-14\naF1.0333761762101968e-13\naa(lp85\nF-3.0520942291024093e-12\naF-3.087689292879618e-12\naF0.0\naF0.0\naF0.0\naF0.0\naF0.0\naF0.0\naF0.0\naF0.0\naF0.0\naF0.0\naF0.0\naF0.0\naF0.0\naF0.0\naF0.0\naF0.0\naF0.0\naF0.0\naF0.0\naF0.0\naF0.0\naF0.0\naF0.0\naF0.0\naF0.0\naF0.0\naF0.0\naF0.0\naF0.0\naF0.0\naF0.0\naF0.0\naF0.0\naF0.0\naF0.0\naF0.0\naF2.1347372043025555e-13\naF2.050740861208651e-13\naF1.720185844170542e-13\naF1.2833128820662596e-13\naF1.0542168781470092e-13\naF8.22390856697943e-14\naF6.983921364026013e-14\naF5.688608312937748e-14\naF4.306521298422592e-14\naF3.0743269201952975e-14\naF2.3183047432271403e-14\naF1.710449293886977e-14\naF1.3673257109106605e-14\naF5.3232047805121365e-15\naF7.592350227093968e-15\naF9.466503149887555e-15\naF1.1239426913134373e-14\naF1.2797568126973572e-14\naF1.5501187051759948e-14\naF2.294371928483522e-14\naF3.447212974008961e-14\naF4.136700687052212e-14\naF4.6345835726291915e-14\naF4.834465012293408e-14\naF5.167831299408129e-14\naF7.665856526222136e-14\naF2.1297980227143534e-13\naF2.047689342777538e-13\naF1.719178016182675e-13\naF1.281613819159377e-13\naF1.0529596307724473e-13\naF8.211933816439648e-14\naF6.97047815952167e-14\naF5.672517042376685e-14\naF4.291253001877821e-14\naF3.058411602578922e-14\naF2.3047400662904177e-14\naF1.6987829324088018e-14\naF1.357849662215836e-14\naF5.27459233064928e-15\naF7.538520037663247e-15\naF9.392589269058817e-15\naF1.115058120959978e-14\naF1.2670254362470158e-14\naF1.537390240746695e-14\naF2.2775849372446365e-14\naF3.4335726254459374e-14\naF4.119810927596643e-14\naF4.612438961905596e-14\naF4.7913137999409595e-14\naF5.128462611143686e-14\naF7.616994302464963e-14\naa(lp86\nF-4.051498471475522e-12\naF-4.073282826727744e-12\naF0.0\naF0.0\naF0.0\naF0.0\naF0.0\naF0.0\naF0.0\naF0.0\naF0.0\naF0.0\naF0.0\naF0.0\naF0.0\naF0.0\naF0.0\naF0.0\naF0.0\naF0.0\naF0.0\naF0.0\naF0.0\naF0.0\naF0.0\naF0.0\naF0.0\naF0.0\naF0.0\naF0.0\naF0.0\naF0.0\naF0.0\naF0.0\naF0.0\naF0.0\naF0.0\naF0.0\naF1.337322236113598e-13\naF1.3738871184139298e-13\naF1.2781503237670132e-13\naF9.736616538197124e-14\naF8.030972796898357e-14\naF6.148015691429064e-14\naF5.172947646674915e-14\naF4.305115950024711e-14\naF3.460468635873895e-14\naF2.535707808612081e-14\naF1.915767588883327e-14\naF1.4011377043624533e-14\naF1.1123952876771482e-14\naF4.752799702966474e-15\naF6.807791819585105e-15\naF8.723327212988343e-15\naF1.0260467677739446e-14\naF1.0840163838580997e-14\naF1.2190518120845225e-14\naF1.663842549187906e-14\naF2.5437068125016484e-14\naF3.076060100585838e-14\naF3.223041877509416e-14\naF2.6277576897022593e-14\naF2.14922810174942e-14\naF3.160279272926873e-14\naF1.3336470255903182e-13\naF1.372073367767168e-13\naF1.2778183433814153e-13\naF9.725851125080298e-14\naF8.021329616587967e-14\naF6.137678569346521e-14\naF5.1614011717246305e-14\naF4.291253001877821e-14\naF3.447188115042827e-14\naF2.522224475217161e-14\naF1.9043513944078334e-14\naF1.391504362640788e-14\naF1.1046768087839344e-14\naF4.7176688968502845e-15\naF6.770833088683769e-15\naF8.670889268098837e-15\naF1.0201905509510798e-14\naF1.0752396443499309e-14\naF1.2101236244562846e-14\naF1.6522961157166294e-14\naF2.5357984143979335e-14\naF3.066003076125346e-14\naF3.209891898604095e-14\naF2.598230585681368e-14\naF2.1199626251447992e-14\naF3.120131387793446e-14\naa(lp87\nF-4.412261221256142e-12\naF-4.426165574860426e-12\naF0.0\naF0.0\naF0.0\naF0.0\naF0.0\naF0.0\naF0.0\naF0.0\naF0.0\naF0.0\naF0.0\naF0.0\naF0.0\naF0.0\naF0.0\naF0.0\naF0.0\naF0.0\naF0.0\naF0.0\naF0.0\naF0.0\naF0.0\naF0.0\naF0.0\naF0.0\naF0.0\naF0.0\naF0.0\naF0.0\naF0.0\naF0.0\naF0.0\naF0.0\naF0.0\naF0.0\naF7.60131802630658e-14\naF8.622507740574288e-14\naF8.458534227308128e-14\naF6.961693190007206e-14\naF5.811470233734327e-14\naF4.440949309241912e-14\naF3.602610941714931e-14\naF3.069498097765704e-14\naF2.5330184967093418e-14\naF1.9723114031694378e-14\naF1.5130096166405512e-14\naF1.1114682061444332e-14\naF8.588665617268247e-15\naF3.942701293169916e-15\naF5.509249879455862e-15\naF7.158449115146241e-15\naF8.47315684367355e-15\naF8.950749980102971e-15\naF9.18530124317098e-15\naF1.2000205941280564e-14\naF1.8036778000325548e-14\naF2.261910367178683e-14\naF2.3286342340688253e-14\naF1.81490556678909e-14\naF8.042047161223423e-15\naF1.050246344564385e-14\naF7.566714091278089e-14\naF8.604583156657949e-14\naF8.453245982492576e-14\naF6.953224744240073e-14\naF5.804031524621033e-14\naF4.433481324415552e-14\naF3.593609832934615e-14\naF3.058411602578922e-14\naF2.522224475217161e-14\naF1.9613347804996255e-14\naF1.5036961430880685e-14\naF1.1037547740597872e-14\naF8.52721890275309e-15\naF3.913793397434062e-15\naF5.479780187303665e-15\naF7.11800833594865e-15\naF8.431292282052262e-15\naF8.891761212558267e-15\naF9.129617498571476e-15\naF1.1924834584554933e-14\naF1.7987662859731095e-14\naF2.255605263819728e-14\naF2.3207690729956143e-14\naF1.7964956305478605e-14\naF7.831452687849379e-15\naF1.0169331997226652e-14\naa(lp88\nF-4.535914673876259e-12\naF-4.521864172702812e-12\naF0.0\naF0.0\naF0.0\naF0.0\naF0.0\naF0.0\naF0.0\naF0.0\naF0.0\naF0.0\naF0.0\naF0.0\naF0.0\naF0.0\naF0.0\naF0.0\naF0.0\naF0.0\naF0.0\naF0.0\naF0.0\naF0.0\naF0.0\naF0.0\naF0.0\naF0.0\naF0.0\naF0.0\naF0.0\naF0.0\naF0.0\naF0.0\naF0.0\naF0.0\naF0.0\naF0.0\naF5.3656877550423666e-14\naF5.8501408859614e-14\naF5.831414569934735e-14\naF4.942019975203689e-14\naF4.475820585182948e-14\naF3.431662850500922e-14\naF2.7699863941329752e-14\naF2.3117316546181906e-14\naF1.911629779600199e-14\naF1.5115312210850104e-14\naF1.2260868533441304e-14\naF9.110060556342328e-15\naF7.047812961813723e-15\naF3.1586542816733674e-15\naF4.347278146952376e-15\naF5.4469221641408715e-15\naF6.53768024530871e-15\naF7.089979536755309e-15\naF6.856887392105162e-15\naF7.722045840035057e-15\naF1.156057176755325e-14\naF1.3131773754780477e-14\naF1.3525541952730798e-14\naF9.514929847765931e-15\naF-6.303259834489482e-16\naF-7.10274961630613e-15\naF5.3437669460945375e-14\naF5.839022925790533e-14\naF5.831629270485595e-14\naF4.940013248366614e-14\naF4.4744164931942996e-14\naF3.429035861297517e-14\naF2.7655351664540838e-14\naF2.3047400662904177e-14\naF1.9043513944078334e-14\naF1.5036961430880685e-14\naF1.2192409128673006e-14\naF9.051304272225699e-15\naF7.001149800116594e-15\naF3.133304878782565e-15\naF4.322339803211361e-15\naF5.41555735848174e-15\naF6.506662624623038e-15\naF7.048038018890356e-15\naF6.821090128643781e-15\naF7.671315113321292e-15\naF1.1532710802634267e-14\naF1.3100508661743831e-14\naF1.3496439924073029e-14\naF9.423409975904583e-15\naF-7.400114052726711e-16\naF-7.344384146746292e-15\naa(lp89\nF-4.264614390774765e-12\naF-4.241516017252324e-12\naF0.0\naF0.0\naF0.0\naF0.0\naF0.0\naF0.0\naF0.0\naF0.0\naF0.0\naF0.0\naF0.0\naF0.0\naF0.0\naF0.0\naF0.0\naF0.0\naF0.0\naF0.0\naF0.0\naF0.0\naF0.0\naF0.0\naF0.0\naF0.0\naF0.0\naF0.0\naF0.0\naF0.0\naF0.0\naF0.0\naF0.0\naF0.0\naF0.0\naF0.0\naF0.0\naF0.0\naF3.855547487295278e-14\naF4.0681254128139806e-14\naF3.938827589955046e-14\naF3.329760451678128e-14\naF3.0556047895575424e-14\naF2.520608486108406e-14\naF2.04793077563164e-14\naF1.7036108780758457e-14\naF1.3967187327017278e-14\naF1.1096871150904837e-14\naF9.103655575180865e-15\naF7.119721525756293e-15\naF5.541730138142202e-15\naF2.5339341604390103e-15\naF3.301551923739403e-15\naF4.098493533865827e-15\naF4.6890149200238125e-15\naF5.0567691582708016e-15\naF4.998280072135433e-15\naF5.6240506145004036e-15\naF7.534006937818361e-15\naF8.515126276299583e-15\naF7.43786474988775e-15\naF4.4725403043278825e-15\naF-2.1338868254696454e-15\naF-8.005312459383614e-15\naF3.840483589529125e-14\naF4.0595735266724446e-14\naF3.9392892979643804e-14\naF3.328517788817491e-14\naF3.055109939008323e-14\naF2.5192888206279215e-14\naF2.0450512217016575e-14\naF1.6987829324088018e-14\naF1.391504362640788e-14\naF1.1037547740597872e-14\naF9.051304272225699e-15\naF7.073298118456976e-15\naF5.503889556938702e-15\naF2.5151599624750732e-15\naF3.2833137245461496e-15\naF4.07637309995565e-15\naF4.668170393818192e-15\naF5.02978911183016e-15\naF4.979547889692867e-15\naF5.594294075906838e-15\naF7.522787072876448e-15\naF8.5096436930244e-15\naF7.443896055534003e-15\naF4.437125706726749e-15\naF-2.165807089058675e-15\naF-8.134918782954295e-15\naa(lp90\nF-3.8907824932865124e-12\naF-3.8607133656307166e-12\naF0.0\naF0.0\naF0.0\naF0.0\naF0.0\naF0.0\naF0.0\naF0.0\naF0.0\naF0.0\naF0.0\naF0.0\naF0.0\naF0.0\naF0.0\naF0.0\naF0.0\naF0.0\naF0.0\naF0.0\naF0.0\naF0.0\naF0.0\naF0.0\naF0.0\naF0.0\naF0.0\naF0.0\naF0.0\naF0.0\naF0.0\naF0.0\naF0.0\naF0.0\naF0.0\naF0.0\naF3.429510603528243e-14\naF3.407264727088405e-14\naF3.2344739574028386e-14\naF2.593208133844144e-14\naF2.3679717255292384e-14\naF1.9443706150158874e-14\naF1.659585461428117e-14\naF1.3608480221561751e-14\naF1.108053110490614e-14\naF8.569176266502661e-15\naF7.038907005343812e-15\naF5.538666597189335e-15\naF4.480747297638949e-15\naF2.16926935049082e-15\naF2.8482344845891933e-15\naF3.4104092136727288e-15\naF3.913161821583761e-15\naF4.0411764832127044e-15\naF4.288001761853331e-15\naF5.1018862134472816e-15\naF6.9914900250180534e-15\naF7.147960834391343e-15\naF6.243692812297819e-15\naF2.37390803574096e-15\naF-1.852188107059226e-15\naF-5.273997497555845e-15\naF3.424244225337384e-14\naF3.404878663676555e-14\naF3.238438477659335e-14\naF2.5942653889291465e-14\naF2.3692283404404015e-14\naF1.9443831186524045e-14\naF1.658344353877601e-14\naF1.357849662215836e-14\naF1.1046768087839344e-14\naF8.52721890275309e-15\naF7.001149800116594e-15\naF5.503889556938702e-15\naF4.451686057637643e-15\naF2.152394174135801e-15\naF2.8316323333459482e-15\naF3.391348988612109e-15\naF3.895236569810225e-15\naF4.017950645931539e-15\naF4.2718168097723314e-15\naF5.0761648596142186e-15\naF6.9813801160175744e-15\naF7.143940428088499e-15\naF6.25329545836715e-15\naF2.3489750193154627e-15\naF-1.8613269280531118e-15\naF-5.3498608068685145e-15\naa(lp91\nF-5.078240236629338e-12\naF-5.089512950017418e-12\naF0.0\naF0.0\naF0.0\naF0.0\naF0.0\naF0.0\naF0.0\naF0.0\naF0.0\naF0.0\naF0.0\naF0.0\naF0.0\naF0.0\naF0.0\naF0.0\naF0.0\naF0.0\naF0.0\naF0.0\naF0.0\naF0.0\naF0.0\naF0.0\naF0.0\naF0.0\naF0.0\naF0.0\naF0.0\naF0.0\naF0.0\naF0.0\naF0.0\naF0.0\naF0.0\naF0.0\naF-1.2054033393218683e-14\naF3.202151221684823e-16\naF4.72838234557661e-15\naF5.500236327254709e-15\naF5.216501922601598e-15\naF4.695214140389904e-15\naF4.532591040575281e-15\naF5.257691974315824e-15\naF4.716622820682376e-15\naF3.928473469084882e-15\naF3.1470603080739585e-15\naF2.526729582283729e-15\naF2.1619538388950836e-15\naF4.53618139882192e-15\naF5.95180714970863e-15\naF7.242180156211038e-15\naF8.442717185309376e-15\naF9.840115725148405e-15\naF1.2102247035218253e-14\naF1.562171914458354e-14\naF2.0356260308614048e-14\naF2.253542919645448e-14\naF2.3004820541194897e-14\naF2.2335730015161457e-14\naF2.123032036059191e-14\naF2.2078032035348336e-14\naF-1.1956323691997443e-14\naF4.1922499111724854e-16\naF4.870085702824351e-15\naF5.590133169515509e-15\naF5.30474376977289e-15\naF4.751062977393425e-15\naF4.570303720299607e-15\naF5.27459233064928e-15\naF4.7176688968502845e-15\naF3.913793397434062e-15\naF3.133304878782565e-15\naF2.5151599624750732e-15\naF2.152394174135801e-15\naF4.497898330099503e-15\naF5.90766268643349e-15\naF7.190763662329855e-15\naF8.385498096476717e-15\naF9.771747608699219e-15\naF1.2026837017915535e-14\naF1.5533267704586134e-14\naF2.0271565857394983e-14\naF2.244933093860939e-14\naF2.2916422537338714e-14\naF2.2234961549520614e-14\naF2.115541588643428e-14\naF2.1995644414121077e-14\naa(lp92\nF-5.651985273282183e-12\naF-5.676031635100229e-12\naF0.0\naF0.0\naF0.0\naF0.0\naF0.0\naF0.0\naF0.0\naF0.0\naF0.0\naF0.0\naF0.0\naF0.0\naF0.0\naF0.0\naF0.0\naF0.0\naF0.0\naF0.0\naF0.0\naF0.0\naF0.0\naF0.0\naF0.0\naF0.0\naF0.0\naF0.0\naF0.0\naF0.0\naF0.0\naF0.0\naF0.0\naF0.0\naF0.0\naF0.0\naF0.0\naF0.0\naF-8.1019386404856e-15\naF7.965772565204606e-15\naF1.297470465427228e-14\naF1.1424016466926078e-14\naF9.53588322421566e-15\naF6.9964975604683306e-15\naF6.562917515363188e-15\naF7.521436098288502e-15\naF6.774821636183388e-15\naF5.505187623376471e-15\naF4.345989118681562e-15\naF3.3035801102185313e-15\naF2.8480481747520734e-15\naF5.958813862926059e-15\naF8.190706532173206e-15\naF1.0096530502500311e-14\naF1.1932655519445051e-14\naF1.3845156770869784e-14\naF1.7214883084632817e-14\naF2.259868937978097e-14\naF3.1139111660408295e-14\naF3.513017069258761e-14\naF3.723819013495017e-14\naF3.6202854738079e-14\naF3.571051386049168e-14\naF3.945306844785463e-14\naF-7.936084634091298e-15\naF8.129791426052304e-15\naF1.3175872818471276e-14\naF1.1548173189064903e-14\naF9.653287113794165e-15\naF7.065153314658019e-15\naF6.6095495216779186e-15\naF7.538520037663247e-15\naF6.770833088683769e-15\naF5.479780187303665e-15\naF4.322339803211361e-15\naF3.2833137245461496e-15\naF2.8316323333459482e-15\naF5.90766268643349e-15\naF8.130117979859504e-15\naF1.0024294106394609e-14\naF1.1850458597003322e-14\naF1.374435055702033e-14\naF1.7099327195676555e-14\naF2.2465367266475354e-14\naF3.1011941823831894e-14\naF3.4995851411491916e-14\naF3.709533187836509e-14\naF3.6036886670624365e-14\naF3.557304165747928e-14\naF3.933163837496975e-14\naa(lp93\nF-5.6755239540583665e-12\naF-5.7119329196049786e-12\naF0.0\naF0.0\naF0.0\naF0.0\naF0.0\naF0.0\naF0.0\naF0.0\naF0.0\naF0.0\naF0.0\naF0.0\naF0.0\naF0.0\naF0.0\naF0.0\naF0.0\naF0.0\naF0.0\naF0.0\naF0.0\naF0.0\naF0.0\naF0.0\naF0.0\naF0.0\naF0.0\naF0.0\naF0.0\naF0.0\naF0.0\naF0.0\naF0.0\naF0.0\naF0.0\naF0.0\naF-8.784453107709947e-15\naF1.2495550535851808e-14\naF2.004606864229412e-14\naF1.7767593139822674e-14\naF1.3415010521736185e-14\naF9.68948718174273e-15\naF8.040879213950323e-15\naF9.382825840268851e-15\naF8.684661826987592e-15\naF7.155872049623464e-15\naF5.449807134457374e-15\naF4.104765746697423e-15\naF3.413959305092134e-15\naF7.247787603391464e-15\naF1.009287905420764e-14\naF1.2928722392271662e-14\naF1.5387323683508532e-14\naF1.7987554212348386e-14\naF2.2282533612339317e-14\naF2.93548242699536e-14\naF4.0657867585228857e-14\naF4.869376693002951e-14\naF5.247668908701565e-14\naF5.290169577617137e-14\naF5.2650522579893396e-14\naF5.900151076100439e-14\naF-8.598531316693026e-15\naF1.268681351165251e-14\naF2.028077344306194e-14\naF1.790397247907067e-14\naF1.3538653741298262e-14\naF9.756633322099821e-15\naF8.082146857344097e-15\naF9.392589269058817e-15\naF8.670889268098837e-15\naF7.11800833594865e-15\naF5.41555735848174e-15\naF4.07637309995565e-15\naF3.391348988612109e-15\naF7.190763662329855e-15\naF1.0024294106394609e-14\naF1.2844710197015179e-14\naF1.5290860789984505e-14\naF1.7867719643401708e-14\naF2.214259810479113e-14\naF2.9197277450365035e-14\naF4.0511903284469245e-14\naF4.854156295196804e-14\naF5.230805424945518e-14\naF5.269625889437565e-14\naF5.2468722684323796e-14\naF5.885658874423835e-14\naa(lp94\nF-5.541829959972506e-12\naF-5.585939531989465e-12\naF0.0\naF0.0\naF0.0\naF0.0\naF0.0\naF0.0\naF0.0\naF0.0\naF0.0\naF0.0\naF0.0\naF0.0\naF0.0\naF0.0\naF0.0\naF0.0\naF0.0\naF0.0\naF0.0\naF0.0\naF0.0\naF0.0\naF0.0\naF0.0\naF0.0\naF0.0\naF0.0\naF0.0\naF0.0\naF0.0\naF0.0\naF0.0\naF0.0\naF0.0\naF0.0\naF0.0\naF2.626099297458668e-15\naF2.1082637398239807e-14\naF2.856370730569638e-14\naF2.503262111468335e-14\naF1.947377973113743e-14\naF1.2821685216359215e-14\naF1.0405222661825475e-14\naF1.1129328120823194e-14\naF1.0209317140231393e-14\naF8.46977469960817e-15\naF6.542572764739063e-15\naF4.698154037082713e-15\naF3.918380761030435e-15\naF8.448905644351883e-15\naF1.1926395918065987e-14\naF1.5384629879656182e-14\naF1.9048301009233353e-14\naF2.2421416838445207e-14\naF2.792997072742174e-14\naF3.6253778866326786e-14\naF5.0817850676274803e-14\naF6.131824212396873e-14\naF7.024308441914289e-14\naF7.217018036902251e-14\naF7.367774770911791e-14\naF7.935382952393343e-14\naF2.9382066558896457e-15\naF2.1375772874032242e-14\naF2.890897246048674e-14\naF2.5246028885338037e-14\naF1.9659520918191444e-14\naF1.2926375498405721e-14\naF1.0471771211166362e-14\naF1.115058120959978e-14\naF1.0201905509510798e-14\naF8.431292282052262e-15\naF6.506662624623038e-15\naF4.668170393818192e-15\naF3.895236569810225e-15\naF8.385498096476717e-15\naF1.1850458597003322e-14\naF1.5290860789984505e-14\naF1.893827078501763e-14\naF2.2281717119286886e-14\naF2.7765213033318956e-14\naF3.606572053927847e-14\naF5.0643312679003564e-14\naF6.113920220608229e-14\naF7.005199686271074e-14\naF7.19334737122156e-14\naF7.346957034849434e-14\naF7.916799670721987e-14\naa(lp95\nF-4.849207137416112e-12\naF-4.932704289950012e-12\naF0.0\naF0.0\naF0.0\naF0.0\naF0.0\naF0.0\naF0.0\naF0.0\naF0.0\naF0.0\naF0.0\naF0.0\naF0.0\naF0.0\naF0.0\naF0.0\naF0.0\naF0.0\naF0.0\naF0.0\naF0.0\naF0.0\naF0.0\naF0.0\naF0.0\naF0.0\naF0.0\naF0.0\naF0.0\naF0.0\naF0.0\naF0.0\naF0.0\naF0.0\naF0.0\naF0.0\naF1.0121974377374043e-14\naF3.116937509069333e-14\naF3.34551332985398e-14\naF3.0016180797783706e-14\naF2.4345716685277788e-14\naF1.6529251577249503e-14\naF1.2044844759797648e-14\naF1.262375540115576e-14\naF1.0748348785055114e-14\naF8.926252077136361e-15\naF7.081841657698298e-15\naF5.0574884937653494e-15\naF4.038365148097805e-15\naF9.844090327944051e-15\naF1.3833128738604916e-14\naF1.7978588702400682e-14\naF2.241574775657024e-14\naF2.8087319826519178e-14\naF3.5149314759272927e-14\naF4.571636506455589e-14\naF6.291020486000397e-14\naF7.667725574875627e-14\naF8.926169124827901e-14\naF1.0250799226931594e-13\naF1.0892286316051884e-13\naF1.1901094318581719e-13\naF1.0479632385747639e-14\naF3.149152813236915e-14\naF3.384852362021177e-14\naF3.027205685454705e-14\naF2.4582289742946543e-14\naF1.6677697672919995e-14\naF1.2146635808408292e-14\naF1.2670254362470158e-14\naF1.0752396443499309e-14\naF8.891761212558267e-15\naF7.048038018890356e-15\naF5.02978911183016e-15\naF4.017950645931539e-15\naF9.771747608699219e-15\naF1.374435055702033e-14\naF1.7867719643401708e-14\naF2.2281717119286886e-14\naF2.7913174885591084e-14\naF3.494364158250656e-14\naF4.5486177243537174e-14\naF6.269029660058189e-14\naF7.644863442776448e-14\naF8.899216881889102e-14\naF1.0217930726250959e-13\naF1.0861321019056394e-13\naF1.1873121471047066e-13\naa(lp96\nF-3.916364691090051e-12\naF-4.056994911008764e-12\naF0.0\naF0.0\naF0.0\naF0.0\naF0.0\naF0.0\naF0.0\naF0.0\naF0.0\naF0.0\naF0.0\naF0.0\naF0.0\naF0.0\naF0.0\naF0.0\naF0.0\naF0.0\naF0.0\naF0.0\naF0.0\naF0.0\naF0.0\naF0.0\naF0.0\naF0.0\naF0.0\naF0.0\naF0.0\naF0.0\naF0.0\naF0.0\naF0.0\naF0.0\naF0.0\naF0.0\naF4.642838980607215e-14\naF5.924366007070677e-14\naF5.1315671878570993e-14\naF3.87759808739726e-14\naF2.8087023074436662e-14\naF1.9960052182956895e-14\naF1.593541552771568e-14\naF1.5293409964637485e-14\naF1.2078158763713884e-14\naF9.15869188343093e-15\naF6.852044934018036e-15\naF5.006121814664388e-15\naF4.29133993038178e-15\naF1.2113092552578013e-14\naF1.720744151218876e-14\naF2.2279977798993412e-14\naF2.7936606970284753e-14\naF3.5173320857920047e-14\naF4.7126533599395256e-14\naF6.355052460003737e-14\naF8.773379760368876e-14\naF1.0608504686242386e-13\naF1.2371442939105099e-13\naF1.404981391362373e-13\naF1.6326106743920604e-13\naF1.9042562312174506e-13\naF4.6979355331651016e-14\naF5.970108064096483e-14\naF5.1838443959014863e-14\naF3.911449664578481e-14\naF2.8395617751951323e-14\naF2.0163706780794655e-14\naF1.6082097181501206e-14\naF1.537390240746695e-14\naF1.2101236244562846e-14\naF9.129617498571476e-15\naF6.821090128643781e-15\naF4.979547889692867e-15\naF4.2718168097723314e-15\naF1.2026837017915535e-14\naF1.7099327195676555e-14\naF2.214259810479113e-14\naF2.7765213033318956e-14\naF3.494364158250656e-14\naF4.684751846111625e-14\naF6.323208108644117e-14\naF8.741301486977621e-14\naF1.0574314286580313e-13\naF1.2331534845399508e-13\naF1.400090869067563e-13\naF1.628486070152679e-13\naF1.901589752847873e-13\naa(lp97\nF-2.965415680185407e-12\naF-3.211781416685224e-12\naF0.0\naF0.0\naF0.0\naF0.0\naF0.0\naF0.0\naF0.0\naF0.0\naF0.0\naF0.0\naF0.0\naF0.0\naF0.0\naF0.0\naF0.0\naF0.0\naF0.0\naF0.0\naF0.0\naF0.0\naF0.0\naF0.0\naF0.0\naF0.0\naF0.0\naF0.0\naF0.0\naF0.0\naF0.0\naF0.0\naF0.0\naF0.0\naF0.0\naF0.0\naF0.0\naF0.0\naF9.740781432992061e-14\naF1.156138553814673e-13\naF8.847869742530726e-14\naF6.363166908217647e-14\naF3.8545566799659225e-14\naF2.774613322398031e-14\naF2.3359205985443464e-14\naF2.270812580667338e-14\naF1.6524847117689587e-14\naF1.198945811593222e-14\naF7.731731267802233e-15\naF5.642999457616023e-15\naF5.1156525637061125e-15\naF1.5653231244456812e-14\naF2.2619695460694555e-14\naF2.939569038394557e-14\naF3.631466392520243e-14\naF4.582166732451436e-14\naF6.364260773839222e-14\naF9.265296988468213e-14\naF1.2954830091961317e-13\naF1.576386935050879e-13\naF1.8020240783732593e-13\naF2.0248728699804703e-13\naF2.400030658706926e-13\naF3.166296510904985e-13\naF9.801151378683548e-14\naF1.1606030130830924e-13\naF8.89834680654328e-14\naF6.392645437579873e-14\naF3.883498081927526e-14\naF2.794414652207711e-14\naF2.3499839287147772e-14\naF2.2775849372446365e-14\naF1.6522961157166294e-14\naF1.1924834584554933e-14\naF7.671315113321292e-15\naF5.594294075906838e-15\naF5.0761648596142186e-15\naF1.5533267704586134e-14\naF2.2465367266475354e-14\naF2.9197277450365035e-14\naF3.606572053927847e-14\naF4.5486177243537174e-14\naF6.323208108644117e-14\naF9.217900746076627e-14\naF1.290489510363984e-13\naF1.570870989813775e-13\naF1.795522819836677e-13\naF2.0167049997683296e-13\naF2.393098229479997e-13\naF3.162561359971198e-13\naa(lp98\nF-3.015638875182739e-13\naF-6.561295155045273e-13\naF0.0\naF0.0\naF0.0\naF0.0\naF0.0\naF0.0\naF0.0\naF0.0\naF0.0\naF0.0\naF0.0\naF0.0\naF0.0\naF0.0\naF0.0\naF0.0\naF0.0\naF0.0\naF0.0\naF0.0\naF0.0\naF0.0\naF0.0\naF0.0\naF0.0\naF0.0\naF0.0\naF0.0\naF0.0\naF0.0\naF0.0\naF0.0\naF0.0\naF0.0\naF0.0\naF0.0\naF1.7565938869950903e-13\naF1.9494720170342534e-13\naF1.52458261561742e-13\naF1.0715214271526939e-13\naF6.63394384350984e-14\naF4.2090494833742446e-14\naF3.561319685270351e-14\naF3.4284011740821937e-14\naF2.53931946085825e-14\naF1.8106615441414726e-14\naF1.1641813006736258e-14\naF7.611699867133243e-15\naF7.053297757118864e-15\naF2.043505673351768e-14\naF3.122459288178047e-14\naF4.078888761144796e-14\naF5.0994926358340213e-14\naF6.316438959974244e-14\naF8.800714727315002e-14\naF1.2973350216646776e-13\naF1.9087955467313514e-13\naF2.3381515041582354e-13\naF2.7244772897764713e-13\naF3.003792391856863e-13\naF3.541906893114638e-13\naF4.700547573749678e-13\naF1.7658472500509018e-13\naF1.9564186960220046e-13\naF1.5315194591904838e-13\naF1.0754268279724217e-13\naF6.671233802331241e-14\naF4.232318240873818e-14\naF3.577506031771661e-14\naF3.4335726254459374e-14\naF2.5357984143979335e-14\naF1.7987662859731095e-14\naF1.1532710802634267e-14\naF7.522787072876448e-15\naF6.9813801160175744e-15\naF2.0271565857394983e-14\naF3.1011941823831894e-14\naF4.0511903284469245e-14\naF5.0643312679003564e-14\naF6.269029660058189e-14\naF8.741301486977621e-14\naF1.290489510363984e-13\naF1.9015629986130367e-13\naF2.3298509059859635e-13\naF2.7146183989468917e-13\naF2.9914632940056813e-13\naF3.530835890013387e-13\naF4.694526711530794e-13\naa(lp99\nF7.080859254644915e-12\naF6.6162360422875245e-12\naF0.0\naF0.0\naF0.0\naF0.0\naF0.0\naF0.0\naF0.0\naF0.0\naF0.0\naF0.0\naF0.0\naF0.0\naF0.0\naF0.0\naF0.0\naF0.0\naF0.0\naF0.0\naF0.0\naF0.0\naF0.0\naF0.0\naF0.0\naF0.0\naF0.0\naF0.0\naF0.0\naF0.0\naF0.0\naF0.0\naF0.0\naF0.0\naF0.0\naF0.0\naF0.0\naF0.0\naF2.278461074869884e-13\naF2.57446751041735e-13\naF2.0635526923724042e-13\naF1.4945867821511492e-13\naF8.708306920935996e-14\naF5.649184850203708e-14\naF4.1847426808704117e-14\naF4.123684694601623e-14\naF3.077156547294977e-14\naF2.274775233201053e-14\naF1.3267688668289198e-14\naF8.63778670509037e-15\naF7.245565740985457e-15\naF2.2591080366380676e-14\naF3.518994090120453e-14\naF4.881032594434812e-14\naF6.149055878586211e-14\naF7.692920408616254e-14\naF1.0636410290011635e-13\naF1.5778882209486195e-13\naF2.337257476899416e-13\naF3.0766681265604635e-13\naF3.657703738094125e-13\naF4.1967276866989944e-13\naF4.932787931846822e-13\naF6.479668088398734e-13\naF2.287850161661019e-13\naF2.581141186740456e-13\naF2.0700298647575288e-13\naF1.4973995134265943e-13\naF8.732652360631089e-14\naF5.6610782188122e-14\naF4.190187640535879e-14\naF4.119810927596643e-14\naF3.066003076125346e-14\naF2.255605263819728e-14\naF1.3100508661743831e-14\naF8.5096436930244e-15\naF7.143940428088499e-15\naF2.244933093860939e-14\naF3.4995851411491916e-14\naF4.854156295196804e-14\naF6.113920220608229e-14\naF7.644863442776448e-14\naF1.0574314286580313e-13\naF1.570870989813775e-13\naF2.3298509059859635e-13\naF3.0679873785409454e-13\naF3.6468658734420543e-13\naF4.1826030854875466e-13\naF4.91925769389351e-13\naF6.472727887087086e-13\naa(lp100\nF1.7732070037868425e-11\naF1.7174712909037285e-11\naF0.0\naF0.0\naF0.0\naF0.0\naF0.0\naF0.0\naF0.0\naF0.0\naF0.0\naF0.0\naF0.0\naF0.0\naF0.0\naF0.0\naF0.0\naF0.0\naF0.0\naF0.0\naF0.0\naF0.0\naF0.0\naF0.0\naF0.0\naF0.0\naF0.0\naF0.0\naF0.0\naF0.0\naF0.0\naF0.0\naF0.0\naF0.0\naF0.0\naF0.0\naF0.0\naF0.0\naF3.5456999794238396e-13\naF3.4147463387291556e-13\naF2.632895457094746e-13\naF1.901440309902118e-13\naF1.1821231694652007e-13\naF7.240469856763483e-14\naF5.285720027996537e-14\naF4.615866515201536e-14\naF3.220193468842192e-14\naF2.3406094765256856e-14\naF1.3669885303264539e-14\naF7.573472478890984e-15\naF6.3534274854197095e-15\naF2.303194211947529e-14\naF3.7261880521335673e-14\naF5.2551427329156507e-14\naF7.039464616439663e-14\naF8.946682526371199e-14\naF1.2394206253125197e-13\naF1.8026660822658489e-13\naF2.7223163326557564e-13\naF3.655948148229566e-13\naF4.666497212115725e-13\naF5.538393685437794e-13\naF6.637287177556436e-13\naF8.372416171376738e-13\naF3.562015860027187e-13\naF3.425675590961658e-13\naF2.643155384241633e-13\naF1.9065059576842025e-13\naF1.1861136299901964e-13\naF7.260620047617964e-14\naF5.295675693658905e-14\naF4.612438961905596e-14\naF3.209891898604095e-14\naF2.3207690729956143e-14\naF1.3496439924073029e-14\naF7.443896055534003e-15\naF6.25329545836715e-15\naF2.2916422537338714e-14\naF3.709533187836509e-14\naF5.230805424945518e-14\naF7.005199686271074e-14\naF8.899216881889102e-14\naF1.2331534845399508e-13\naF1.795522819836677e-13\naF2.7146183989468917e-13\naF3.6468658734420543e-13\naF4.655200905090526e-13\naF5.523728654379205e-13\naF6.623330580535838e-13\naF8.365378598887022e-13\naa(lp101\nF3.4201571564269124e-11\naF3.333362975623956e-11\naF0.0\naF0.0\naF0.0\naF0.0\naF0.0\naF0.0\naF0.0\naF0.0\naF0.0\naF0.0\naF0.0\naF0.0\naF0.0\naF0.0\naF0.0\naF0.0\naF0.0\naF0.0\naF0.0\naF0.0\naF0.0\naF0.0\naF0.0\naF0.0\naF0.0\naF0.0\naF0.0\naF0.0\naF0.0\naF0.0\naF0.0\naF0.0\naF0.0\naF0.0\naF0.0\naF0.0\naF4.5468892984318206e-13\naF4.332458139468405e-13\naF2.9495620071475197e-13\naF2.1793341206763517e-13\naF1.3961367124419428e-13\naF9.131627263125953e-14\naF5.6374871102226835e-14\naF4.793086786523068e-14\naF2.6087021862274058e-14\naF1.8165368434341325e-14\naF9.598399650234756e-15\naF4.561550717869547e-15\naF2.4441056950500214e-15\naF2.2317512971141827e-14\naF3.618627154326043e-14\naF5.2935499385323826e-14\naF7.230371695559894e-14\naF1.0268253230255534e-13\naF1.406625287529254e-13\naF2.0239391378354924e-13\naF2.9995268589846235e-13\naF4.192523581846983e-13\naF5.537885189858653e-13\naF7.532975089957831e-13\naF9.292417101168167e-13\naF1.146935094505761e-12\naF4.564359967381955e-13\naF4.3426768397989297e-13\naF2.9588544996638893e-13\naF2.18351252226862e-13\naF1.399959263783582e-13\naF9.155210314831364e-14\naF5.6489237137185126e-14\naF4.7913137999409595e-14\naF2.598230585681368e-14\naF1.7964956305478605e-14\naF9.423409975904583e-15\naF4.437125706726749e-15\naF2.3489750193154627e-15\naF2.2234961549520614e-14\naF3.6036886670624365e-14\naF5.269625889437565e-14\naF7.19334737122156e-14\naF1.0217930726250959e-13\naF1.400090869067563e-13\naF2.0167049997683296e-13\naF2.9914632940056813e-13\naF4.1826030854875466e-13\naF5.523728654379205e-13\naF7.515599408463201e-13\naF9.275402371540172e-13\naF1.1460101245795971e-12\naa(lp102\nF5.446032614792294e-11\naF5.325620406882675e-11\naF0.0\naF0.0\naF0.0\naF0.0\naF0.0\naF0.0\naF0.0\naF0.0\naF0.0\naF0.0\naF0.0\naF0.0\naF0.0\naF0.0\naF0.0\naF0.0\naF0.0\naF0.0\naF0.0\naF0.0\naF0.0\naF0.0\naF0.0\naF0.0\naF0.0\naF0.0\naF0.0\naF0.0\naF0.0\naF0.0\naF0.0\naF0.0\naF0.0\naF0.0\naF0.0\naF0.0\naF7.354230326596734e-13\naF6.096384563665094e-13\naF3.908944260219158e-13\naF2.549754415051591e-13\naF1.526164022576688e-13\naF1.0816295614377521e-13\naF7.216082896010192e-14\naF5.131226792066002e-14\naF2.132836535246077e-14\naF8.06687902360534e-15\naF-5.375246639951425e-16\naF-2.0220917039702594e-15\naF-1.7440964207294442e-15\naF2.120889402127709e-14\naF3.570673985901021e-14\naF5.272657642336678e-14\naF7.391408069398103e-14\naF1.092457063611287e-13\naF1.6366687928668163e-13\naF2.402362326334195e-13\naF3.5414067753735646e-13\naF4.932227429689721e-13\naF6.641243946253998e-13\naF9.296834835050898e-13\naF1.2539417140088192e-12\naF1.5807934580489304e-12\naF7.381484938432388e-13\naF6.112148110431675e-13\naF3.921214570633956e-13\naF2.5541080273224277e-13\naF1.5294941176782794e-13\naF1.0838747322571292e-13\naF7.223964300244104e-14\naF5.128462611143686e-14\naF2.1199626251447992e-14\naF7.831452687849379e-15\naF-7.400114052726711e-16\naF-2.165807089058675e-15\naF-1.8613269280531118e-15\naF2.115541588643428e-14\naF3.557304165747928e-14\naF5.2468722684323796e-14\naF7.346957034849434e-14\naF1.0861321019056394e-13\naF1.628486070152679e-13\naF2.393098229479997e-13\naF3.530835890013387e-13\naF4.91925769389351e-13\naF6.623330580535838e-13\naF9.275402371540172e-13\naF1.2522752014403422e-12\naF1.5804628324203058e-12\naa(lp103\nF7.486463307441834e-11\naF7.308441555828249e-11\naF0.0\naF0.0\naF0.0\naF0.0\naF0.0\naF0.0\naF0.0\naF0.0\naF0.0\naF0.0\naF0.0\naF0.0\naF0.0\naF0.0\naF0.0\naF0.0\naF0.0\naF0.0\naF0.0\naF0.0\naF0.0\naF0.0\naF0.0\naF0.0\naF0.0\naF0.0\naF0.0\naF0.0\naF0.0\naF0.0\naF0.0\naF0.0\naF0.0\naF0.0\naF0.0\naF0.0\naF1.1139855650291068e-12\naF9.54671366409341e-13\naF6.118421485608754e-13\naF3.940978564530794e-13\naF2.047284630273951e-13\naF1.426408184285464e-13\naF1.0370098731681686e-13\naF7.651859695876184e-14\naF3.161699961321705e-14\naF1.0654898385465944e-14\naF-6.948693531174641e-15\naF-7.865463326823079e-15\naF-5.117892952567612e-15\naF2.2122538588622012e-14\naF3.958611058689325e-14\naF5.929253067094569e-14\naF7.98583534603092e-14\naF1.1969599480905727e-13\naF1.9138125410499466e-13\naF3.1760673818178235e-13\naF4.710143653390545e-13\naF6.491929359241598e-13\naF8.391687967834409e-13\naF1.149235515010167e-12\naF1.5827935921578544e-12\naF2.240680654594886e-12\naF1.11629580936878e-12\naF9.555398258006368e-13\naF6.120834803892953e-13\naF3.935331423872277e-13\naF2.0421858488160489e-13\naF1.4234274510814784e-13\naF1.0333761762101968e-13\naF7.616994302464963e-14\naF3.120131387793446e-14\naF1.0169331997226652e-14\naF-7.344384146746292e-15\naF-8.134918782954295e-15\naF-5.3498608068685145e-15\naF2.1995644414121077e-14\naF3.933163837496975e-14\naF5.885658874423835e-14\naF7.916799670721987e-14\naF1.1873121471047066e-13\naF1.901589752847873e-13\naF3.162561359971198e-13\naF4.694526711530794e-13\naF6.472727887087086e-13\naF8.365378598887022e-13\naF1.1460101245795971e-12\naF1.5804628324203058e-12\naF2.2408656821242027e-12\naaa(lp104\nI00\naI00\naI01\naI01\naI01\naI01\naI01\naI01\naI01\naI01\naI01\naI01\naI01\naI01\naI01\naI01\naI01\naI01\naI01\naI01\naI01\naI01\naI01\naI01\naI01\naI01\naI01\naI01\naI01\naI01\naI01\naI01\naI01\naI01\naI01\naI01\naI01\naI01\naI01\naI01\naI01\naI01\naI01\naI01\naI01\naI01\naI01\naI01\naI01\naI01\naI01\naI01\naI01\naI01\naI01\naI01\naI01\naI01\naI01\naI01\naI01\naI01\naI01\naI01\naI01\naI01\naI01\naI01\naI01\naI01\naI01\naI01\naI01\naI01\naI01\naI01\naI01\naI01\naI01\naI01\naI01\naI01\naI01\naI01\naI01\naI01\naI01\naI01\naI01\naI01\naa(lp105\n(lp106\nF0.00011138766616973791\naF1.123451449163721e-08\naF5.567288597939366e-09\naF-3.4681346479276378e-06\naF-2.797284871329553e-06\naF-9.478488196999286e-08\naF1.484415946890842e-06\naF4.578231973820966e-07\naF1.3002546742676924e-07\naF7.313287894815558e-08\naF1.9227875159866267e-06\naF9.625372232712764e-07\naF5.569291781109258e-06\naF5.55735183852058e-06\naF5.501393355364208e-06\naF-1.410518543127419e-08\naF-6.608644708103434e-09\naF-1.6648112178693573e-09\naF1.0030527748706876e-06\naF1.1294134808910108e-08\naF7.2619441634247785e-09\naF-1.250189453270245e-07\naF-2.1825266293189064e-06\naF-2.102795875714934e-06\naF-1.5561374744807208e-06\naF-8.599951248999236e-07\naF-3.352018358590782e-07\naF7.235170815656198e-08\naF1.9224109068167396e-06\naF1.140746111529725e-06\naF-1.1992893866265219e-05\naF4.738224306245837e-08\naF4.9648515925956345e-08\naF3.3137376995615624e-08\naF1.5677763774455548e-08\naF4.611815977949917e-09\naF-4.144186117680338\naF146.95942411596735\naF-1549.6825114710628\naF7667.30605285403\naF-12437.395234149562\naF-9294.81325215885\naF50027.53225467135\naF-59911.07837888755\naF24348.16973256369\naF58204.60562397667\naF-107746.48649246623\naF44220.879998621\naF7725.696569646511\naF7517.0514846748265\naF34487.90000468607\naF-97970.61056838196\naF61890.39047537621\naF33393.91907815449\naF-77963.60580734821\naF49096.50415387507\naF-5869.8997686263165\naF-9252.628624728606\naF5965.3599826183745\naF-1610.8558083214714\naF156.63866190666903\naF-4.4079627270714585\naF10.49701319709556\naF-229.05917401932982\naF1907.5792668203894\naF-8305.697934845057\naF12536.520596513505\naF9206.81450029974\naF-48896.831073208385\naF59127.21984003553\naF-25046.884591031125\naF-55861.362623229135\naF107618.90980659315\naF-42792.27858490719\naF-12819.417383370088\naF-12566.842939016056\naF-33461.650083947374\naF98169.65881305479\naF-59450.47458353167\naF-34619.594793903816\naF77683.6544773349\naF-48446.26999094598\naF5843.555048946117\naF9364.18079338899\naF-6464.414613368504\naF1990.8681610230149\naF-244.10427459986659\naF11.16254627827945\naa(lp107\nF0.0001100259074860766\naF1.1132759285808758e-08\naF5.675728382546407e-09\naF-3.429560612200748e-06\naF-2.804538512067566e-06\naF-1.0818127338863482e-07\naF1.5051707785754736e-06\naF4.6533006097923055e-07\naF1.3234344279831884e-07\naF7.244482035566341e-08\naF1.9017632675710315e-06\naF9.786755821716593e-07\naF5.6229236523966535e-06\naF5.611768171751102e-06\naF5.5559336413022e-06\naF-1.4264615560397695e-08\naF-6.7095733987260375e-09\naF-1.6930685551595732e-09\naF9.915451583034947e-07\naF1.124329689742026e-08\naF7.899091960166947e-09\naF-1.42638752044348e-07\naF-2.1267973816350873e-06\naF-2.0702446160949335e-06\naF-1.540758526699203e-06\naF-8.542742361833588e-07\naF-3.336099937341697e-07\naF7.170961688120179e-08\naF1.9073229337153191e-06\naF1.2080552229926257e-06\naF-1.14543949392803e-05\naF4.637680711370692e-08\naF4.8879567868391905e-08\naF3.277835776782048e-08\naF1.5556358249754668e-08\naF4.585050142070201e-09\naF-4.227015509625494\naF150.74778637298814\naF-1610.3009058009873\naF8150.654863659646\naF-14001.036812434168\naF-7345.576868272215\naF50472.67732519727\naF-61338.2838879804\naF25693.62181405505\naF56399.775606349955\naF-108845.2040507777\naF37119.521564628776\naF19161.988317536256\naF18644.487449530807\naF28949.54483001303\naF-98969.6411032431\naF59971.27027285767\naF35239.22894852093\naF-79820.8597698508\naF49533.36493471264\naF-4638.9097650222475\naF-10415.878208236858\naF6341.417705337389\naF-1673.8670973272344\naF160.67653833635077\naF-4.496064193084914\naF10.477143003390465\naF-231.37657302855933\naF1960.606709465478\naF-8772.550606331975\naF14094.318697579523\naF7242.04980637307\naF-49346.29865554634\naF60566.32231012893\naF-26363.155864544464\naF-54124.751570150635\naF108755.29870938111\naF-35655.46808402076\naF-24264.088211379516\naF-23786.02525309746\naF-27880.98311333341\naF99206.26948924658\naF-57602.2856668225\naF-36438.933960109134\naF79574.40360010219\naF-48891.59594291861\naF4596.52105615605\naF10527.781406946562\naF-6827.771101351169\naF2046.2108925460668\naF-246.57388537414926\naF11.14141627180743\naaaasS'means'\np108\n(lp109\nF0.308715933283283\naF0.30911323170481375\naF0.0\naF0.0\naF0.0\naF0.0\naF0.0\naF0.0\naF0.0\naF0.0\naF0.0\naF0.0\naF0.0\naF0.0\naF0.0\naF0.0\naF0.0\naF0.0\naF0.0\naF0.0\naF0.0\naF0.0\naF0.0\naF0.0\naF0.0\naF0.0\naF0.0\naF0.0\naF0.0\naF0.0\naF0.0\naF0.0\naF0.0\naF0.0\naF0.0\naF0.0\naF0.0\naF0.0\naF0.0\naF0.0\naF0.0\naF0.0\naF0.0\naF0.0\naF0.0\naF0.0\naF0.0\naF0.0\naF0.0\naF0.0\naF0.0\naF0.0\naF0.0\naF0.0\naF0.0\naF0.0\naF0.0\naF0.0\naF0.0\naF0.0\naF0.0\naF0.0\naF0.0\naF0.0\naF0.0\naF0.0\naF0.0\naF0.0\naF0.0\naF0.0\naF0.0\naF0.0\naF0.0\naF0.0\naF0.0\naF0.0\naF0.0\naF0.0\naF0.0\naF0.0\naF0.0\naF0.0\naF0.0\naF0.0\naF0.0\naF0.0\naF0.0\naF0.0\naF0.0\naF0.0\nasS'fix_cov'\np110\nI00\ns."
p2
sS'data'
p3
(dp4
S'E'
p5
(igvar._utilities
GVarRef
p6
(dp7
S'loc'
p8
I0
sbsS'Eqed'
p9
(igvar._utilities
GVarRef
p10
(dp11
g8
I1
sbss.