(dp0
S'gvlist'
p1
S"(dp0\nS'shape'\np1\n(lp2\nI2\nasS'bufsize'\np3\nI2\nsS'bcovs'\np4\n(lp5\n(lp6\n(lp7\na(lp8\na(lp9\na(lp10\naa(lp11\n(lp12\nI0\naI1\naI2\naI3\naI4\naI5\naI6\naI7\naI8\naI9\naI10\naI11\naI12\naI13\naI14\naI15\naI16\naI17\naI18\naI19\naI20\naI21\naI22\naI23\naI24\naI25\naI26\naI27\naI28\naI29\naI30\naI31\naI32\naI33\naI34\naI35\naI36\naI37\naI38\naI39\naI40\naI41\naI42\naI43\naI44\naI45\naI46\naI47\naI48\naI49\naI50\naI51\naI52\naI53\naI54\naI55\naI56\naI57\naI58\naI59\naI60\naI61\naI62\naI63\naI64\naI65\naI66\naI67\naI68\naI69\naI70\naI71\naI72\naI73\naI74\naI75\naI76\naI77\naI78\naI79\naI80\naI81\naI82\naI83\naI84\naI85\naI86\naI87\naI88\naI89\naa(lp13\n(lp14\nF2.4667671729540406e-08\naF2.4666520969841946e-08\naF1.6289546063478515e-08\naF3.022554884165621e-08\naF5.534995068844707e-08\naF-1.5778202028464264e-06\naF-1.702784493759409e-06\naF-2.3085134476373844e-07\naF-2.6498320198200696e-07\naF-1.7171034975867274e-07\naF-1.0434046963172841e-07\naF8.058409966191974e-08\naF1.1095111272770977e-06\naF2.167581672101745e-06\naF6.04984228379649e-07\naF5.977816190706828e-07\naF3.7526044256303774e-10\naF1.148940781112864e-09\naF7.80129655314304e-10\naF3.301102123085267e-10\naF1.482049630303067e-08\naF3.0928075734630244e-08\naF8.003973430302937e-08\naF-1.3311107736453672e-06\naF-1.2821146308551707e-06\naF-9.380544692197635e-07\naF-1.094486591703333e-05\naF-1.8111815149706997e-06\naF2.8919487528954757e-08\naF8.055467277097508e-08\naF1.1257592109700318e-06\naF2.670456139508446e-06\naF-3.815043617427459e-06\naF4.049626442299908e-07\naF4.03182426382003e-07\naF3.99349257345272e-07\naF3.3179675422014706e-07\naF-4.3606831348191505e-11\naF6.183793470324723e-11\naF4.6799959357848774e-11\naF2.7243671064079227e-11\naF1.5568826729286367e-11\naF5.153933151007934e-12\naF-4.412958648947672e-13\naF-2.443600850584285e-12\naF-3.577306565780681e-12\naF-4.621555108622451e-12\naF-4.834062946568098e-12\naF-5.051887312214575e-12\naF-5.118348983322818e-12\naF-4.70547991412667e-12\naF-5.678164215525417e-12\naF-5.8652051913570195e-12\naF-5.869582601903815e-12\naF-5.3450920009423535e-12\naF-4.184725163277057e-12\naF-2.9475682525767746e-12\naF-5.034124335093616e-13\naF4.780972089796844e-12\naF1.1302806396461286e-11\naF2.342803876517168e-11\naF3.805448993536871e-11\naF5.658882566311659e-11\naF8.423800713140234e-11\naF6.181709712448481e-11\naF4.678741732358877e-11\naF2.720291992532199e-11\naF1.5544301752905823e-11\naF5.128395335152913e-12\naF-4.530995472006977e-13\naF-2.4558849733029258e-12\naF-3.582547587468252e-12\naF-4.624812261014184e-12\naF-4.8328530974301705e-12\naF-5.048708271044999e-12\naF-5.114128597903273e-12\naF-4.7010725034610845e-12\naF-5.666927836454228e-12\naF-5.855127314542226e-12\naF-5.863652538372756e-12\naF-5.346578306336423e-12\naF-4.19431237930381e-12\naF-2.9670335857818774e-12\naF-5.237134781590502e-13\naF4.757545935391952e-12\naF1.1271210506576617e-11\naF2.337338353194014e-11\naF3.7989729630581586e-11\naF5.6520078830818264e-11\naF8.421468821341552e-11\naa(lp15\nF2.4666520969841946e-08\naF2.466653914601652e-08\naF1.628955522421796e-08\naF3.0321463717834075e-08\naF5.5700634858729664e-08\naF-1.5559153967078993e-06\naF-1.7148575216643329e-06\naF-2.1963796943734346e-07\naF-2.5716447247487725e-07\naF-1.6735104569405462e-07\naF-1.018704484852926e-07\naF8.058034615148424e-08\naF1.1121758393878975e-06\naF2.1809571841438237e-06\naF6.113309478269973e-07\naF6.042715208208926e-07\naF3.4503710797584476e-10\naF1.1128270313508566e-09\naF7.595001369020408e-10\naF3.219832916545635e-10\naF1.4821441513933572e-08\naF3.103392338788315e-08\naF8.066825251437038e-08\naF-1.3422722428268146e-06\naF-1.2570022896951783e-06\naF-9.214099182564212e-07\naF-1.0763807660323778e-05\naF-1.840001434010494e-06\naF2.843954686523662e-08\naF8.055473791209112e-08\naF1.1286796369106253e-06\naF2.6894966304915223e-06\naF-3.7243707935881273e-06\naF3.9847346264732016e-07\naF3.9673600183413374e-07\naF3.9297412975264177e-07\naF3.2657135894362567e-07\naF-4.283012895590143e-11\naF6.171283860691667e-11\naF4.671788944084365e-11\naF2.7175809251554488e-11\naF1.5539525087823468e-11\naF5.14282357549179e-12\naF-4.695722999222774e-13\naF-2.4524011924112037e-12\naF-3.5786887147259713e-12\naF-4.623319474572676e-12\naF-4.835276229131476e-12\naF-5.047502202537203e-12\naF-5.115344482883967e-12\naF-4.700747786358892e-12\naF-5.683550901024948e-12\naF-5.871723510926281e-12\naF-5.880585161250365e-12\naF-5.356019035480691e-12\naF-4.203658366633818e-12\naF-2.9817811096645077e-12\naF-5.563877263766503e-13\naF4.7183051290167155e-12\naF1.1200403055147753e-11\naF2.3311145793854155e-11\naF3.7844932551698035e-11\naF5.6279579815340324e-11\naF8.384106836895278e-11\naF6.169234067880858e-11\naF4.670571783376295e-11\naF2.7135476128322656e-11\naF1.5515347706083475e-11\naF5.1175490864905125e-12\naF-4.811975973054542e-13\naF-2.464568188178543e-12\naF-3.5838774157787186e-12\naF-4.626525442050933e-12\naF-4.8340333382031626e-12\naF-5.044302123837821e-12\naF-5.1111242671443394e-12\naF-4.696350207521916e-12\naF-5.6723916162206684e-12\naF-5.8617099487649665e-12\naF-5.87470309846228e-12\naF-5.357556442889565e-12\naF-4.213310977741589e-12\naF-3.0013252055496324e-12\naF-5.767952574470824e-13\naF4.694808245739641e-12\naF1.1168854787356347e-11\naF2.325661059594366e-11\naF3.778027166937529e-11\naF5.621089064903267e-11\naF8.381754273909906e-11\naa(lp16\nF1.6289546063478515e-08\naF1.628955522421796e-08\naF0.0001\naF0.0\naF0.0\naF0.0\naF0.0\naF0.0\naF0.0\naF0.0\naF0.0\naF0.0\naF0.0\naF0.0\naF0.0\naF0.0\naF0.0\naF0.0\naF0.0\naF0.0\naF0.0\naF0.0\naF0.0\naF0.0\naF0.0\naF0.0\naF0.0\naF0.0\naF0.0\naF0.0\naF0.0\naF0.0\naF0.0\naF0.0\naF0.0\naF0.0\naF0.0\naF0.0\naF0.0\naF0.0\naF0.0\naF0.0\naF0.0\naF0.0\naF0.0\naF0.0\naF0.0\naF0.0\naF0.0\naF0.0\naF0.0\naF0.0\naF0.0\naF0.0\naF0.0\naF0.0\naF0.0\naF0.0\naF0.0\naF0.0\naF0.0\naF0.0\naF0.0\naF0.0\naF0.0\naF0.0\naF0.0\naF0.0\naF0.0\naF0.0\naF0.0\naF0.0\naF0.0\naF0.0\naF0.0\naF0.0\naF0.0\naF0.0\naF0.0\naF0.0\naF0.0\naF0.0\naF0.0\naF0.0\naF0.0\naF0.0\naF0.0\naF0.0\naF0.0\naF0.0\naa(lp17\nF3.022554884165621e-08\naF3.0321463717834075e-08\naF0.0\naF0.9801\naF0.0\naF0.0\naF0.0\naF0.0\naF0.0\naF0.0\naF0.0\naF0.0\naF0.0\naF0.0\naF0.0\naF0.0\naF0.0\naF0.0\naF0.0\naF0.0\naF0.0\naF0.0\naF0.0\naF0.0\naF0.0\naF0.0\naF0.0\naF0.0\naF0.0\naF0.0\naF0.0\naF0.0\naF0.0\naF0.0\naF0.0\naF0.0\naF0.0\naF0.0\naF0.0\naF0.0\naF0.0\naF0.0\naF0.0\naF0.0\naF0.0\naF0.0\naF0.0\naF0.0\naF0.0\naF0.0\naF0.0\naF0.0\naF0.0\naF0.0\naF0.0\naF0.0\naF0.0\naF0.0\naF0.0\naF0.0\naF0.0\naF0.0\naF0.0\naF0.0\naF0.0\naF0.0\naF0.0\naF0.0\naF0.0\naF0.0\naF0.0\naF0.0\naF0.0\naF0.0\naF0.0\naF0.0\naF0.0\naF0.0\naF0.0\naF0.0\naF0.0\naF0.0\naF0.0\naF0.0\naF0.0\naF0.0\naF0.0\naF0.0\naF0.0\naF0.0\naa(lp18\nF5.534995068844707e-08\naF5.5700634858729664e-08\naF0.0\naF0.0\naF0.9801\naF0.0\naF0.0\naF0.0\naF0.0\naF0.0\naF0.0\naF0.0\naF0.0\naF0.0\naF0.0\naF0.0\naF0.0\naF0.0\naF0.0\naF0.0\naF0.0\naF0.0\naF0.0\naF0.0\naF0.0\naF0.0\naF0.0\naF0.0\naF0.0\naF0.0\naF0.0\naF0.0\naF0.0\naF0.0\naF0.0\naF0.0\naF0.0\naF0.0\naF0.0\naF0.0\naF0.0\naF0.0\naF0.0\naF0.0\naF0.0\naF0.0\naF0.0\naF0.0\naF0.0\naF0.0\naF0.0\naF0.0\naF0.0\naF0.0\naF0.0\naF0.0\naF0.0\naF0.0\naF0.0\naF0.0\naF0.0\naF0.0\naF0.0\naF0.0\naF0.0\naF0.0\naF0.0\naF0.0\naF0.0\naF0.0\naF0.0\naF0.0\naF0.0\naF0.0\naF0.0\naF0.0\naF0.0\naF0.0\naF0.0\naF0.0\naF0.0\naF0.0\naF0.0\naF0.0\naF0.0\naF0.0\naF0.0\naF0.0\naF0.0\naF0.0\naa(lp19\nF-1.5778202028464264e-06\naF-1.5559153967078993e-06\naF0.0\naF0.0\naF0.0\naF0.9801\naF0.0\naF0.0\naF0.0\naF0.0\naF0.0\naF0.0\naF0.0\naF0.0\naF0.0\naF0.0\naF0.0\naF0.0\naF0.0\naF0.0\naF0.0\naF0.0\naF0.0\naF0.0\naF0.0\naF0.0\naF0.0\naF0.0\naF0.0\naF0.0\naF0.0\naF0.0\naF0.0\naF0.0\naF0.0\naF0.0\naF0.0\naF0.0\naF0.0\naF0.0\naF0.0\naF0.0\naF0.0\naF0.0\naF0.0\naF0.0\naF0.0\naF0.0\naF0.0\naF0.0\naF0.0\naF0.0\naF0.0\naF0.0\naF0.0\naF0.0\naF0.0\naF0.0\naF0.0\naF0.0\naF0.0\naF0.0\naF0.0\naF0.0\naF0.0\naF0.0\naF0.0\naF0.0\naF0.0\naF0.0\naF0.0\naF0.0\naF0.0\naF0.0\naF0.0\naF0.0\naF0.0\naF0.0\naF0.0\naF0.0\naF0.0\naF0.0\naF0.0\naF0.0\naF0.0\naF0.0\naF0.0\naF0.0\naF0.0\naF0.0\naa(lp20\nF-1.702784493759409e-06\naF-1.7148575216643329e-06\naF0.0\naF0.0\naF0.0\naF0.0\naF0.9801\naF0.0\naF0.0\naF0.0\naF0.0\naF0.0\naF0.0\naF0.0\naF0.0\naF0.0\naF0.0\naF0.0\naF0.0\naF0.0\naF0.0\naF0.0\naF0.0\naF0.0\naF0.0\naF0.0\naF0.0\naF0.0\naF0.0\naF0.0\naF0.0\naF0.0\naF0.0\naF0.0\naF0.0\naF0.0\naF0.0\naF0.0\naF0.0\naF0.0\naF0.0\naF0.0\naF0.0\naF0.0\naF0.0\naF0.0\naF0.0\naF0.0\naF0.0\naF0.0\naF0.0\naF0.0\naF0.0\naF0.0\naF0.0\naF0.0\naF0.0\naF0.0\naF0.0\naF0.0\naF0.0\naF0.0\naF0.0\naF0.0\naF0.0\naF0.0\naF0.0\naF0.0\naF0.0\naF0.0\naF0.0\naF0.0\naF0.0\naF0.0\naF0.0\naF0.0\naF0.0\naF0.0\naF0.0\naF0.0\naF0.0\naF0.0\naF0.0\naF0.0\naF0.0\naF0.0\naF0.0\naF0.0\naF0.0\naF0.0\naa(lp21\nF-2.3085134476373844e-07\naF-2.1963796943734346e-07\naF0.0\naF0.0\naF0.0\naF0.0\naF0.0\naF0.9801\naF0.0\naF0.0\naF0.0\naF0.0\naF0.0\naF0.0\naF0.0\naF0.0\naF0.0\naF0.0\naF0.0\naF0.0\naF0.0\naF0.0\naF0.0\naF0.0\naF0.0\naF0.0\naF0.0\naF0.0\naF0.0\naF0.0\naF0.0\naF0.0\naF0.0\naF0.0\naF0.0\naF0.0\naF0.0\naF0.0\naF0.0\naF0.0\naF0.0\naF0.0\naF0.0\naF0.0\naF0.0\naF0.0\naF0.0\naF0.0\naF0.0\naF0.0\naF0.0\naF0.0\naF0.0\naF0.0\naF0.0\naF0.0\naF0.0\naF0.0\naF0.0\naF0.0\naF0.0\naF0.0\naF0.0\naF0.0\naF0.0\naF0.0\naF0.0\naF0.0\naF0.0\naF0.0\naF0.0\naF0.0\naF0.0\naF0.0\naF0.0\naF0.0\naF0.0\naF0.0\naF0.0\naF0.0\naF0.0\naF0.0\naF0.0\naF0.0\naF0.0\naF0.0\naF0.0\naF0.0\naF0.0\naF0.0\naa(lp22\nF-2.6498320198200696e-07\naF-2.5716447247487725e-07\naF0.0\naF0.0\naF0.0\naF0.0\naF0.0\naF0.0\naF0.9801\naF0.0\naF0.0\naF0.0\naF0.0\naF0.0\naF0.0\naF0.0\naF0.0\naF0.0\naF0.0\naF0.0\naF0.0\naF0.0\naF0.0\naF0.0\naF0.0\naF0.0\naF0.0\naF0.0\naF0.0\naF0.0\naF0.0\naF0.0\naF0.0\naF0.0\naF0.0\naF0.0\naF0.0\naF0.0\naF0.0\naF0.0\naF0.0\naF0.0\naF0.0\naF0.0\naF0.0\naF0.0\naF0.0\naF0.0\naF0.0\naF0.0\naF0.0\naF0.0\naF0.0\naF0.0\naF0.0\naF0.0\naF0.0\naF0.0\naF0.0\naF0.0\naF0.0\naF0.0\naF0.0\naF0.0\naF0.0\naF0.0\naF0.0\naF0.0\naF0.0\naF0.0\naF0.0\naF0.0\naF0.0\naF0.0\naF0.0\naF0.0\naF0.0\naF0.0\naF0.0\naF0.0\naF0.0\naF0.0\naF0.0\naF0.0\naF0.0\naF0.0\naF0.0\naF0.0\naF0.0\naF0.0\naa(lp23\nF-1.7171034975867274e-07\naF-1.6735104569405462e-07\naF0.0\naF0.0\naF0.0\naF0.0\naF0.0\naF0.0\naF0.0\naF0.9801\naF0.0\naF0.0\naF0.0\naF0.0\naF0.0\naF0.0\naF0.0\naF0.0\naF0.0\naF0.0\naF0.0\naF0.0\naF0.0\naF0.0\naF0.0\naF0.0\naF0.0\naF0.0\naF0.0\naF0.0\naF0.0\naF0.0\naF0.0\naF0.0\naF0.0\naF0.0\naF0.0\naF0.0\naF0.0\naF0.0\naF0.0\naF0.0\naF0.0\naF0.0\naF0.0\naF0.0\naF0.0\naF0.0\naF0.0\naF0.0\naF0.0\naF0.0\naF0.0\naF0.0\naF0.0\naF0.0\naF0.0\naF0.0\naF0.0\naF0.0\naF0.0\naF0.0\naF0.0\naF0.0\naF0.0\naF0.0\naF0.0\naF0.0\naF0.0\naF0.0\naF0.0\naF0.0\naF0.0\naF0.0\naF0.0\naF0.0\naF0.0\naF0.0\naF0.0\naF0.0\naF0.0\naF0.0\naF0.0\naF0.0\naF0.0\naF0.0\naF0.0\naF0.0\naF0.0\naF0.0\naa(lp24\nF-1.0434046963172841e-07\naF-1.018704484852926e-07\naF0.0\naF0.0\naF0.0\naF0.0\naF0.0\naF0.0\naF0.0\naF0.0\naF0.9801\naF0.0\naF0.0\naF0.0\naF0.0\naF0.0\naF0.0\naF0.0\naF0.0\naF0.0\naF0.0\naF0.0\naF0.0\naF0.0\naF0.0\naF0.0\naF0.0\naF0.0\naF0.0\naF0.0\naF0.0\naF0.0\naF0.0\naF0.0\naF0.0\naF0.0\naF0.0\naF0.0\naF0.0\naF0.0\naF0.0\naF0.0\naF0.0\naF0.0\naF0.0\naF0.0\naF0.0\naF0.0\naF0.0\naF0.0\naF0.0\naF0.0\naF0.0\naF0.0\naF0.0\naF0.0\naF0.0\naF0.0\naF0.0\naF0.0\naF0.0\naF0.0\naF0.0\naF0.0\naF0.0\naF0.0\naF0.0\naF0.0\naF0.0\naF0.0\naF0.0\naF0.0\naF0.0\naF0.0\naF0.0\naF0.0\naF0.0\naF0.0\naF0.0\naF0.0\naF0.0\naF0.0\naF0.0\naF0.0\naF0.0\naF0.0\naF0.0\naF0.0\naF0.0\naF0.0\naa(lp25\nF8.058409966191974e-08\naF8.058034615148424e-08\naF0.0\naF0.0\naF0.0\naF0.0\naF0.0\naF0.0\naF0.0\naF0.0\naF0.0\naF0.81\naF0.0\naF0.0\naF0.0\naF0.0\naF0.0\naF0.0\naF0.0\naF0.0\naF0.0\naF0.0\naF0.0\naF0.0\naF0.0\naF0.0\naF0.0\naF0.0\naF0.0\naF0.0\naF0.0\naF0.0\naF0.0\naF0.0\naF0.0\naF0.0\naF0.0\naF0.0\naF0.0\naF0.0\naF0.0\naF0.0\naF0.0\naF0.0\naF0.0\naF0.0\naF0.0\naF0.0\naF0.0\naF0.0\naF0.0\naF0.0\naF0.0\naF0.0\naF0.0\naF0.0\naF0.0\naF0.0\naF0.0\naF0.0\naF0.0\naF0.0\naF0.0\naF0.0\naF0.0\naF0.0\naF0.0\naF0.0\naF0.0\naF0.0\naF0.0\naF0.0\naF0.0\naF0.0\naF0.0\naF0.0\naF0.0\naF0.0\naF0.0\naF0.0\naF0.0\naF0.0\naF0.0\naF0.0\naF0.0\naF0.0\naF0.0\naF0.0\naF0.0\naF0.0\naa(lp26\nF1.1095111272770977e-06\naF1.1121758393878975e-06\naF0.0\naF0.0\naF0.0\naF0.0\naF0.0\naF0.0\naF0.0\naF0.0\naF0.0\naF0.0\naF0.25\naF0.0\naF0.0\naF0.0\naF0.0\naF0.0\naF0.0\naF0.0\naF0.0\naF0.0\naF0.0\naF0.0\naF0.0\naF0.0\naF0.0\naF0.0\naF0.0\naF0.0\naF0.0\naF0.0\naF0.0\naF0.0\naF0.0\naF0.0\naF0.0\naF0.0\naF0.0\naF0.0\naF0.0\naF0.0\naF0.0\naF0.0\naF0.0\naF0.0\naF0.0\naF0.0\naF0.0\naF0.0\naF0.0\naF0.0\naF0.0\naF0.0\naF0.0\naF0.0\naF0.0\naF0.0\naF0.0\naF0.0\naF0.0\naF0.0\naF0.0\naF0.0\naF0.0\naF0.0\naF0.0\naF0.0\naF0.0\naF0.0\naF0.0\naF0.0\naF0.0\naF0.0\naF0.0\naF0.0\naF0.0\naF0.0\naF0.0\naF0.0\naF0.0\naF0.0\naF0.0\naF0.0\naF0.0\naF0.0\naF0.0\naF0.0\naF0.0\naF0.0\naa(lp27\nF2.167581672101745e-06\naF2.1809571841438237e-06\naF0.0\naF0.0\naF0.0\naF0.0\naF0.0\naF0.0\naF0.0\naF0.0\naF0.0\naF0.0\naF0.0\naF0.25\naF0.0\naF0.0\naF0.0\naF0.0\naF0.0\naF0.0\naF0.0\naF0.0\naF0.0\naF0.0\naF0.0\naF0.0\naF0.0\naF0.0\naF0.0\naF0.0\naF0.0\naF0.0\naF0.0\naF0.0\naF0.0\naF0.0\naF0.0\naF0.0\naF0.0\naF0.0\naF0.0\naF0.0\naF0.0\naF0.0\naF0.0\naF0.0\naF0.0\naF0.0\naF0.0\naF0.0\naF0.0\naF0.0\naF0.0\naF0.0\naF0.0\naF0.0\naF0.0\naF0.0\naF0.0\naF0.0\naF0.0\naF0.0\naF0.0\naF0.0\naF0.0\naF0.0\naF0.0\naF0.0\naF0.0\naF0.0\naF0.0\naF0.0\naF0.0\naF0.0\naF0.0\naF0.0\naF0.0\naF0.0\naF0.0\naF0.0\naF0.0\naF0.0\naF0.0\naF0.0\naF0.0\naF0.0\naF0.0\naF0.0\naF0.0\naF0.0\naa(lp28\nF6.04984228379649e-07\naF6.113309478269973e-07\naF0.0\naF0.0\naF0.0\naF0.0\naF0.0\naF0.0\naF0.0\naF0.0\naF0.0\naF0.0\naF0.0\naF0.0\naF0.25\naF0.0\naF0.0\naF0.0\naF0.0\naF0.0\naF0.0\naF0.0\naF0.0\naF0.0\naF0.0\naF0.0\naF0.0\naF0.0\naF0.0\naF0.0\naF0.0\naF0.0\naF0.0\naF0.0\naF0.0\naF0.0\naF0.0\naF0.0\naF0.0\naF0.0\naF0.0\naF0.0\naF0.0\naF0.0\naF0.0\naF0.0\naF0.0\naF0.0\naF0.0\naF0.0\naF0.0\naF0.0\naF0.0\naF0.0\naF0.0\naF0.0\naF0.0\naF0.0\naF0.0\naF0.0\naF0.0\naF0.0\naF0.0\naF0.0\naF0.0\naF0.0\naF0.0\naF0.0\naF0.0\naF0.0\naF0.0\naF0.0\naF0.0\naF0.0\naF0.0\naF0.0\naF0.0\naF0.0\naF0.0\naF0.0\naF0.0\naF0.0\naF0.0\naF0.0\naF0.0\naF0.0\naF0.0\naF0.0\naF0.0\naF0.0\naa(lp29\nF5.977816190706828e-07\naF6.042715208208926e-07\naF0.0\naF0.0\naF0.0\naF0.0\naF0.0\naF0.0\naF0.0\naF0.0\naF0.0\naF0.0\naF0.0\naF0.0\naF0.0\naF0.25\naF0.0\naF0.0\naF0.0\naF0.0\naF0.0\naF0.0\naF0.0\naF0.0\naF0.0\naF0.0\naF0.0\naF0.0\naF0.0\naF0.0\naF0.0\naF0.0\naF0.0\naF0.0\naF0.0\naF0.0\naF0.0\naF0.0\naF0.0\naF0.0\naF0.0\naF0.0\naF0.0\naF0.0\naF0.0\naF0.0\naF0.0\naF0.0\naF0.0\naF0.0\naF0.0\naF0.0\naF0.0\naF0.0\naF0.0\naF0.0\naF0.0\naF0.0\naF0.0\naF0.0\naF0.0\naF0.0\naF0.0\naF0.0\naF0.0\naF0.0\naF0.0\naF0.0\naF0.0\naF0.0\naF0.0\naF0.0\naF0.0\naF0.0\naF0.0\naF0.0\naF0.0\naF0.0\naF0.0\naF0.0\naF0.0\naF0.0\naF0.0\naF0.0\naF0.0\naF0.0\naF0.0\naF0.0\naF0.0\naF0.0\naa(lp30\nF3.7526044256303774e-10\naF3.4503710797584476e-10\naF0.0\naF0.0\naF0.0\naF0.0\naF0.0\naF0.0\naF0.0\naF0.0\naF0.0\naF0.0\naF0.0\naF0.0\naF0.0\naF0.0\naF0.25\naF0.0\naF0.0\naF0.0\naF0.0\naF0.0\naF0.0\naF0.0\naF0.0\naF0.0\naF0.0\naF0.0\naF0.0\naF0.0\naF0.0\naF0.0\naF0.0\naF0.0\naF0.0\naF0.0\naF0.0\naF0.0\naF0.0\naF0.0\naF0.0\naF0.0\naF0.0\naF0.0\naF0.0\naF0.0\naF0.0\naF0.0\naF0.0\naF0.0\naF0.0\naF0.0\naF0.0\naF0.0\naF0.0\naF0.0\naF0.0\naF0.0\naF0.0\naF0.0\naF0.0\naF0.0\naF0.0\naF0.0\naF0.0\naF0.0\naF0.0\naF0.0\naF0.0\naF0.0\naF0.0\naF0.0\naF0.0\naF0.0\naF0.0\naF0.0\naF0.0\naF0.0\naF0.0\naF0.0\naF0.0\naF0.0\naF0.0\naF0.0\naF0.0\naF0.0\naF0.0\naF0.0\naF0.0\naF0.0\naa(lp31\nF1.148940781112864e-09\naF1.1128270313508566e-09\naF0.0\naF0.0\naF0.0\naF0.0\naF0.0\naF0.0\naF0.0\naF0.0\naF0.0\naF0.0\naF0.0\naF0.0\naF0.0\naF0.0\naF0.0\naF0.25\naF0.0\naF0.0\naF0.0\naF0.0\naF0.0\naF0.0\naF0.0\naF0.0\naF0.0\naF0.0\naF0.0\naF0.0\naF0.0\naF0.0\naF0.0\naF0.0\naF0.0\naF0.0\naF0.0\naF0.0\naF0.0\naF0.0\naF0.0\naF0.0\naF0.0\naF0.0\naF0.0\naF0.0\naF0.0\naF0.0\naF0.0\naF0.0\naF0.0\naF0.0\naF0.0\naF0.0\naF0.0\naF0.0\naF0.0\naF0.0\naF0.0\naF0.0\naF0.0\naF0.0\naF0.0\naF0.0\naF0.0\naF0.0\naF0.0\naF0.0\naF0.0\naF0.0\naF0.0\naF0.0\naF0.0\naF0.0\naF0.0\naF0.0\naF0.0\naF0.0\naF0.0\naF0.0\naF0.0\naF0.0\naF0.0\naF0.0\naF0.0\naF0.0\naF0.0\naF0.0\naF0.0\naF0.0\naa(lp32\nF7.80129655314304e-10\naF7.595001369020408e-10\naF0.0\naF0.0\naF0.0\naF0.0\naF0.0\naF0.0\naF0.0\naF0.0\naF0.0\naF0.0\naF0.0\naF0.0\naF0.0\naF0.0\naF0.0\naF0.0\naF0.25\naF0.0\naF0.0\naF0.0\naF0.0\naF0.0\naF0.0\naF0.0\naF0.0\naF0.0\naF0.0\naF0.0\naF0.0\naF0.0\naF0.0\naF0.0\naF0.0\naF0.0\naF0.0\naF0.0\naF0.0\naF0.0\naF0.0\naF0.0\naF0.0\naF0.0\naF0.0\naF0.0\naF0.0\naF0.0\naF0.0\naF0.0\naF0.0\naF0.0\naF0.0\naF0.0\naF0.0\naF0.0\naF0.0\naF0.0\naF0.0\naF0.0\naF0.0\naF0.0\naF0.0\naF0.0\naF0.0\naF0.0\naF0.0\naF0.0\naF0.0\naF0.0\naF0.0\naF0.0\naF0.0\naF0.0\naF0.0\naF0.0\naF0.0\naF0.0\naF0.0\naF0.0\naF0.0\naF0.0\naF0.0\naF0.0\naF0.0\naF0.0\naF0.0\naF0.0\naF0.0\naF0.0\naa(lp33\nF3.301102123085267e-10\naF3.219832916545635e-10\naF0.0\naF0.0\naF0.0\naF0.0\naF0.0\naF0.0\naF0.0\naF0.0\naF0.0\naF0.0\naF0.0\naF0.0\naF0.0\naF0.0\naF0.0\naF0.0\naF0.0\naF0.25\naF0.0\naF0.0\naF0.0\naF0.0\naF0.0\naF0.0\naF0.0\naF0.0\naF0.0\naF0.0\naF0.0\naF0.0\naF0.0\naF0.0\naF0.0\naF0.0\naF0.0\naF0.0\naF0.0\naF0.0\naF0.0\naF0.0\naF0.0\naF0.0\naF0.0\naF0.0\naF0.0\naF0.0\naF0.0\naF0.0\naF0.0\naF0.0\naF0.0\naF0.0\naF0.0\naF0.0\naF0.0\naF0.0\naF0.0\naF0.0\naF0.0\naF0.0\naF0.0\naF0.0\naF0.0\naF0.0\naF0.0\naF0.0\naF0.0\naF0.0\naF0.0\naF0.0\naF0.0\naF0.0\naF0.0\naF0.0\naF0.0\naF0.0\naF0.0\naF0.0\naF0.0\naF0.0\naF0.0\naF0.0\naF0.0\naF0.0\naF0.0\naF0.0\naF0.0\naF0.0\naa(lp34\nF1.482049630303067e-08\naF1.4821441513933572e-08\naF0.0\naF0.0\naF0.0\naF0.0\naF0.0\naF0.0\naF0.0\naF0.0\naF0.0\naF0.0\naF0.0\naF0.0\naF0.0\naF0.0\naF0.0\naF0.0\naF0.0\naF0.0\naF0.010000000000000002\naF0.0\naF0.0\naF0.0\naF0.0\naF0.0\naF0.0\naF0.0\naF0.0\naF0.0\naF0.0\naF0.0\naF0.0\naF0.0\naF0.0\naF0.0\naF0.0\naF0.0\naF0.0\naF0.0\naF0.0\naF0.0\naF0.0\naF0.0\naF0.0\naF0.0\naF0.0\naF0.0\naF0.0\naF0.0\naF0.0\naF0.0\naF0.0\naF0.0\naF0.0\naF0.0\naF0.0\naF0.0\naF0.0\naF0.0\naF0.0\naF0.0\naF0.0\naF0.0\naF0.0\naF0.0\naF0.0\naF0.0\naF0.0\naF0.0\naF0.0\naF0.0\naF0.0\naF0.0\naF0.0\naF0.0\naF0.0\naF0.0\naF0.0\naF0.0\naF0.0\naF0.0\naF0.0\naF0.0\naF0.0\naF0.0\naF0.0\naF0.0\naF0.0\naF0.0\naa(lp35\nF3.0928075734630244e-08\naF3.103392338788315e-08\naF0.0\naF0.0\naF0.0\naF0.0\naF0.0\naF0.0\naF0.0\naF0.0\naF0.0\naF0.0\naF0.0\naF0.0\naF0.0\naF0.0\naF0.0\naF0.0\naF0.0\naF0.0\naF0.0\naF0.9801\naF0.0\naF0.0\naF0.0\naF0.0\naF0.0\naF0.0\naF0.0\naF0.0\naF0.0\naF0.0\naF0.0\naF0.0\naF0.0\naF0.0\naF0.0\naF0.0\naF0.0\naF0.0\naF0.0\naF0.0\naF0.0\naF0.0\naF0.0\naF0.0\naF0.0\naF0.0\naF0.0\naF0.0\naF0.0\naF0.0\naF0.0\naF0.0\naF0.0\naF0.0\naF0.0\naF0.0\naF0.0\naF0.0\naF0.0\naF0.0\naF0.0\naF0.0\naF0.0\naF0.0\naF0.0\naF0.0\naF0.0\naF0.0\naF0.0\naF0.0\naF0.0\naF0.0\naF0.0\naF0.0\naF0.0\naF0.0\naF0.0\naF0.0\naF0.0\naF0.0\naF0.0\naF0.0\naF0.0\naF0.0\naF0.0\naF0.0\naF0.0\naF0.0\naa(lp36\nF8.003973430302937e-08\naF8.066825251437038e-08\naF0.0\naF0.0\naF0.0\naF0.0\naF0.0\naF0.0\naF0.0\naF0.0\naF0.0\naF0.0\naF0.0\naF0.0\naF0.0\naF0.0\naF0.0\naF0.0\naF0.0\naF0.0\naF0.0\naF0.0\naF0.9801\naF0.0\naF0.0\naF0.0\naF0.0\naF0.0\naF0.0\naF0.0\naF0.0\naF0.0\naF0.0\naF0.0\naF0.0\naF0.0\naF0.0\naF0.0\naF0.0\naF0.0\naF0.0\naF0.0\naF0.0\naF0.0\naF0.0\naF0.0\naF0.0\naF0.0\naF0.0\naF0.0\naF0.0\naF0.0\naF0.0\naF0.0\naF0.0\naF0.0\naF0.0\naF0.0\naF0.0\naF0.0\naF0.0\naF0.0\naF0.0\naF0.0\naF0.0\naF0.0\naF0.0\naF0.0\naF0.0\naF0.0\naF0.0\naF0.0\naF0.0\naF0.0\naF0.0\naF0.0\naF0.0\naF0.0\naF0.0\naF0.0\naF0.0\naF0.0\naF0.0\naF0.0\naF0.0\naF0.0\naF0.0\naF0.0\naF0.0\naF0.0\naa(lp37\nF-1.3311107736453672e-06\naF-1.3422722428268146e-06\naF0.0\naF0.0\naF0.0\naF0.0\naF0.0\naF0.0\naF0.0\naF0.0\naF0.0\naF0.0\naF0.0\naF0.0\naF0.0\naF0.0\naF0.0\naF0.0\naF0.0\naF0.0\naF0.0\naF0.0\naF0.0\naF0.9801\naF0.0\naF0.0\naF0.0\naF0.0\naF0.0\naF0.0\naF0.0\naF0.0\naF0.0\naF0.0\naF0.0\naF0.0\naF0.0\naF0.0\naF0.0\naF0.0\naF0.0\naF0.0\naF0.0\naF0.0\naF0.0\naF0.0\naF0.0\naF0.0\naF0.0\naF0.0\naF0.0\naF0.0\naF0.0\naF0.0\naF0.0\naF0.0\naF0.0\naF0.0\naF0.0\naF0.0\naF0.0\naF0.0\naF0.0\naF0.0\naF0.0\naF0.0\naF0.0\naF0.0\naF0.0\naF0.0\naF0.0\naF0.0\naF0.0\naF0.0\naF0.0\naF0.0\naF0.0\naF0.0\naF0.0\naF0.0\naF0.0\naF0.0\naF0.0\naF0.0\naF0.0\naF0.0\naF0.0\naF0.0\naF0.0\naF0.0\naa(lp38\nF-1.2821146308551707e-06\naF-1.2570022896951783e-06\naF0.0\naF0.0\naF0.0\naF0.0\naF0.0\naF0.0\naF0.0\naF0.0\naF0.0\naF0.0\naF0.0\naF0.0\naF0.0\naF0.0\naF0.0\naF0.0\naF0.0\naF0.0\naF0.0\naF0.0\naF0.0\naF0.0\naF0.9801\naF0.0\naF0.0\naF0.0\naF0.0\naF0.0\naF0.0\naF0.0\naF0.0\naF0.0\naF0.0\naF0.0\naF0.0\naF0.0\naF0.0\naF0.0\naF0.0\naF0.0\naF0.0\naF0.0\naF0.0\naF0.0\naF0.0\naF0.0\naF0.0\naF0.0\naF0.0\naF0.0\naF0.0\naF0.0\naF0.0\naF0.0\naF0.0\naF0.0\naF0.0\naF0.0\naF0.0\naF0.0\naF0.0\naF0.0\naF0.0\naF0.0\naF0.0\naF0.0\naF0.0\naF0.0\naF0.0\naF0.0\naF0.0\naF0.0\naF0.0\naF0.0\naF0.0\naF0.0\naF0.0\naF0.0\naF0.0\naF0.0\naF0.0\naF0.0\naF0.0\naF0.0\naF0.0\naF0.0\naF0.0\naF0.0\naa(lp39\nF-9.380544692197635e-07\naF-9.214099182564212e-07\naF0.0\naF0.0\naF0.0\naF0.0\naF0.0\naF0.0\naF0.0\naF0.0\naF0.0\naF0.0\naF0.0\naF0.0\naF0.0\naF0.0\naF0.0\naF0.0\naF0.0\naF0.0\naF0.0\naF0.0\naF0.0\naF0.0\naF0.0\naF0.9801\naF0.0\naF0.0\naF0.0\naF0.0\naF0.0\naF0.0\naF0.0\naF0.0\naF0.0\naF0.0\naF0.0\naF0.0\naF0.0\naF0.0\naF0.0\naF0.0\naF0.0\naF0.0\naF0.0\naF0.0\naF0.0\naF0.0\naF0.0\naF0.0\naF0.0\naF0.0\naF0.0\naF0.0\naF0.0\naF0.0\naF0.0\naF0.0\naF0.0\naF0.0\naF0.0\naF0.0\naF0.0\naF0.0\naF0.0\naF0.0\naF0.0\naF0.0\naF0.0\naF0.0\naF0.0\naF0.0\naF0.0\naF0.0\naF0.0\naF0.0\naF0.0\naF0.0\naF0.0\naF0.0\naF0.0\naF0.0\naF0.0\naF0.0\naF0.0\naF0.0\naF0.0\naF0.0\naF0.0\naF0.0\naa(lp40\nF-1.094486591703333e-05\naF-1.0763807660323778e-05\naF0.0\naF0.0\naF0.0\naF0.0\naF0.0\naF0.0\naF0.0\naF0.0\naF0.0\naF0.0\naF0.0\naF0.0\naF0.0\naF0.0\naF0.0\naF0.0\naF0.0\naF0.0\naF0.0\naF0.0\naF0.0\naF0.0\naF0.0\naF0.0\naF0.9801\naF0.0\naF0.0\naF0.0\naF0.0\naF0.0\naF0.0\naF0.0\naF0.0\naF0.0\naF0.0\naF0.0\naF0.0\naF0.0\naF0.0\naF0.0\naF0.0\naF0.0\naF0.0\naF0.0\naF0.0\naF0.0\naF0.0\naF0.0\naF0.0\naF0.0\naF0.0\naF0.0\naF0.0\naF0.0\naF0.0\naF0.0\naF0.0\naF0.0\naF0.0\naF0.0\naF0.0\naF0.0\naF0.0\naF0.0\naF0.0\naF0.0\naF0.0\naF0.0\naF0.0\naF0.0\naF0.0\naF0.0\naF0.0\naF0.0\naF0.0\naF0.0\naF0.0\naF0.0\naF0.0\naF0.0\naF0.0\naF0.0\naF0.0\naF0.0\naF0.0\naF0.0\naF0.0\naF0.0\naa(lp41\nF-1.8111815149706997e-06\naF-1.840001434010494e-06\naF0.0\naF0.0\naF0.0\naF0.0\naF0.0\naF0.0\naF0.0\naF0.0\naF0.0\naF0.0\naF0.0\naF0.0\naF0.0\naF0.0\naF0.0\naF0.0\naF0.0\naF0.0\naF0.0\naF0.0\naF0.0\naF0.0\naF0.0\naF0.0\naF0.0\naF0.9801\naF0.0\naF0.0\naF0.0\naF0.0\naF0.0\naF0.0\naF0.0\naF0.0\naF0.0\naF0.0\naF0.0\naF0.0\naF0.0\naF0.0\naF0.0\naF0.0\naF0.0\naF0.0\naF0.0\naF0.0\naF0.0\naF0.0\naF0.0\naF0.0\naF0.0\naF0.0\naF0.0\naF0.0\naF0.0\naF0.0\naF0.0\naF0.0\naF0.0\naF0.0\naF0.0\naF0.0\naF0.0\naF0.0\naF0.0\naF0.0\naF0.0\naF0.0\naF0.0\naF0.0\naF0.0\naF0.0\naF0.0\naF0.0\naF0.0\naF0.0\naF0.0\naF0.0\naF0.0\naF0.0\naF0.0\naF0.0\naF0.0\naF0.0\naF0.0\naF0.0\naF0.0\naF0.0\naa(lp42\nF2.8919487528954757e-08\naF2.843954686523662e-08\naF0.0\naF0.0\naF0.0\naF0.0\naF0.0\naF0.0\naF0.0\naF0.0\naF0.0\naF0.0\naF0.0\naF0.0\naF0.0\naF0.0\naF0.0\naF0.0\naF0.0\naF0.0\naF0.0\naF0.0\naF0.0\naF0.0\naF0.0\naF0.0\naF0.0\naF0.0\naF0.9801\naF0.0\naF0.0\naF0.0\naF0.0\naF0.0\naF0.0\naF0.0\naF0.0\naF0.0\naF0.0\naF0.0\naF0.0\naF0.0\naF0.0\naF0.0\naF0.0\naF0.0\naF0.0\naF0.0\naF0.0\naF0.0\naF0.0\naF0.0\naF0.0\naF0.0\naF0.0\naF0.0\naF0.0\naF0.0\naF0.0\naF0.0\naF0.0\naF0.0\naF0.0\naF0.0\naF0.0\naF0.0\naF0.0\naF0.0\naF0.0\naF0.0\naF0.0\naF0.0\naF0.0\naF0.0\naF0.0\naF0.0\naF0.0\naF0.0\naF0.0\naF0.0\naF0.0\naF0.0\naF0.0\naF0.0\naF0.0\naF0.0\naF0.0\naF0.0\naF0.0\naF0.0\naa(lp43\nF8.055467277097508e-08\naF8.055473791209112e-08\naF0.0\naF0.0\naF0.0\naF0.0\naF0.0\naF0.0\naF0.0\naF0.0\naF0.0\naF0.0\naF0.0\naF0.0\naF0.0\naF0.0\naF0.0\naF0.0\naF0.0\naF0.0\naF0.0\naF0.0\naF0.0\naF0.0\naF0.0\naF0.0\naF0.0\naF0.0\naF0.0\naF0.81\naF0.0\naF0.0\naF0.0\naF0.0\naF0.0\naF0.0\naF0.0\naF0.0\naF0.0\naF0.0\naF0.0\naF0.0\naF0.0\naF0.0\naF0.0\naF0.0\naF0.0\naF0.0\naF0.0\naF0.0\naF0.0\naF0.0\naF0.0\naF0.0\naF0.0\naF0.0\naF0.0\naF0.0\naF0.0\naF0.0\naF0.0\naF0.0\naF0.0\naF0.0\naF0.0\naF0.0\naF0.0\naF0.0\naF0.0\naF0.0\naF0.0\naF0.0\naF0.0\naF0.0\naF0.0\naF0.0\naF0.0\naF0.0\naF0.0\naF0.0\naF0.0\naF0.0\naF0.0\naF0.0\naF0.0\naF0.0\naF0.0\naF0.0\naF0.0\naF0.0\naa(lp44\nF1.1257592109700318e-06\naF1.1286796369106253e-06\naF0.0\naF0.0\naF0.0\naF0.0\naF0.0\naF0.0\naF0.0\naF0.0\naF0.0\naF0.0\naF0.0\naF0.0\naF0.0\naF0.0\naF0.0\naF0.0\naF0.0\naF0.0\naF0.0\naF0.0\naF0.0\naF0.0\naF0.0\naF0.0\naF0.0\naF0.0\naF0.0\naF0.0\naF0.25\naF0.0\naF0.0\naF0.0\naF0.0\naF0.0\naF0.0\naF0.0\naF0.0\naF0.0\naF0.0\naF0.0\naF0.0\naF0.0\naF0.0\naF0.0\naF0.0\naF0.0\naF0.0\naF0.0\naF0.0\naF0.0\naF0.0\naF0.0\naF0.0\naF0.0\naF0.0\naF0.0\naF0.0\naF0.0\naF0.0\naF0.0\naF0.0\naF0.0\naF0.0\naF0.0\naF0.0\naF0.0\naF0.0\naF0.0\naF0.0\naF0.0\naF0.0\naF0.0\naF0.0\naF0.0\naF0.0\naF0.0\naF0.0\naF0.0\naF0.0\naF0.0\naF0.0\naF0.0\naF0.0\naF0.0\naF0.0\naF0.0\naF0.0\naF0.0\naa(lp45\nF2.670456139508446e-06\naF2.6894966304915223e-06\naF0.0\naF0.0\naF0.0\naF0.0\naF0.0\naF0.0\naF0.0\naF0.0\naF0.0\naF0.0\naF0.0\naF0.0\naF0.0\naF0.0\naF0.0\naF0.0\naF0.0\naF0.0\naF0.0\naF0.0\naF0.0\naF0.0\naF0.0\naF0.0\naF0.0\naF0.0\naF0.0\naF0.0\naF0.0\naF0.25\naF0.0\naF0.0\naF0.0\naF0.0\naF0.0\naF0.0\naF0.0\naF0.0\naF0.0\naF0.0\naF0.0\naF0.0\naF0.0\naF0.0\naF0.0\naF0.0\naF0.0\naF0.0\naF0.0\naF0.0\naF0.0\naF0.0\naF0.0\naF0.0\naF0.0\naF0.0\naF0.0\naF0.0\naF0.0\naF0.0\naF0.0\naF0.0\naF0.0\naF0.0\naF0.0\naF0.0\naF0.0\naF0.0\naF0.0\naF0.0\naF0.0\naF0.0\naF0.0\naF0.0\naF0.0\naF0.0\naF0.0\naF0.0\naF0.0\naF0.0\naF0.0\naF0.0\naF0.0\naF0.0\naF0.0\naF0.0\naF0.0\naF0.0\naa(lp46\nF-3.815043617427459e-06\naF-3.7243707935881273e-06\naF0.0\naF0.0\naF0.0\naF0.0\naF0.0\naF0.0\naF0.0\naF0.0\naF0.0\naF0.0\naF0.0\naF0.0\naF0.0\naF0.0\naF0.0\naF0.0\naF0.0\naF0.0\naF0.0\naF0.0\naF0.0\naF0.0\naF0.0\naF0.0\naF0.0\naF0.0\naF0.0\naF0.0\naF0.0\naF0.0\naF0.25\naF0.0\naF0.0\naF0.0\naF0.0\naF0.0\naF0.0\naF0.0\naF0.0\naF0.0\naF0.0\naF0.0\naF0.0\naF0.0\naF0.0\naF0.0\naF0.0\naF0.0\naF0.0\naF0.0\naF0.0\naF0.0\naF0.0\naF0.0\naF0.0\naF0.0\naF0.0\naF0.0\naF0.0\naF0.0\naF0.0\naF0.0\naF0.0\naF0.0\naF0.0\naF0.0\naF0.0\naF0.0\naF0.0\naF0.0\naF0.0\naF0.0\naF0.0\naF0.0\naF0.0\naF0.0\naF0.0\naF0.0\naF0.0\naF0.0\naF0.0\naF0.0\naF0.0\naF0.0\naF0.0\naF0.0\naF0.0\naF0.0\naa(lp47\nF4.049626442299908e-07\naF3.9847346264732016e-07\naF0.0\naF0.0\naF0.0\naF0.0\naF0.0\naF0.0\naF0.0\naF0.0\naF0.0\naF0.0\naF0.0\naF0.0\naF0.0\naF0.0\naF0.0\naF0.0\naF0.0\naF0.0\naF0.0\naF0.0\naF0.0\naF0.0\naF0.0\naF0.0\naF0.0\naF0.0\naF0.0\naF0.0\naF0.0\naF0.0\naF0.0\naF0.25\naF0.0\naF0.0\naF0.0\naF0.0\naF0.0\naF0.0\naF0.0\naF0.0\naF0.0\naF0.0\naF0.0\naF0.0\naF0.0\naF0.0\naF0.0\naF0.0\naF0.0\naF0.0\naF0.0\naF0.0\naF0.0\naF0.0\naF0.0\naF0.0\naF0.0\naF0.0\naF0.0\naF0.0\naF0.0\naF0.0\naF0.0\naF0.0\naF0.0\naF0.0\naF0.0\naF0.0\naF0.0\naF0.0\naF0.0\naF0.0\naF0.0\naF0.0\naF0.0\naF0.0\naF0.0\naF0.0\naF0.0\naF0.0\naF0.0\naF0.0\naF0.0\naF0.0\naF0.0\naF0.0\naF0.0\naF0.0\naa(lp48\nF4.03182426382003e-07\naF3.9673600183413374e-07\naF0.0\naF0.0\naF0.0\naF0.0\naF0.0\naF0.0\naF0.0\naF0.0\naF0.0\naF0.0\naF0.0\naF0.0\naF0.0\naF0.0\naF0.0\naF0.0\naF0.0\naF0.0\naF0.0\naF0.0\naF0.0\naF0.0\naF0.0\naF0.0\naF0.0\naF0.0\naF0.0\naF0.0\naF0.0\naF0.0\naF0.0\naF0.0\naF0.25\naF0.0\naF0.0\naF0.0\naF0.0\naF0.0\naF0.0\naF0.0\naF0.0\naF0.0\naF0.0\naF0.0\naF0.0\naF0.0\naF0.0\naF0.0\naF0.0\naF0.0\naF0.0\naF0.0\naF0.0\naF0.0\naF0.0\naF0.0\naF0.0\naF0.0\naF0.0\naF0.0\naF0.0\naF0.0\naF0.0\naF0.0\naF0.0\naF0.0\naF0.0\naF0.0\naF0.0\naF0.0\naF0.0\naF0.0\naF0.0\naF0.0\naF0.0\naF0.0\naF0.0\naF0.0\naF0.0\naF0.0\naF0.0\naF0.0\naF0.0\naF0.0\naF0.0\naF0.0\naF0.0\naF0.0\naa(lp49\nF3.99349257345272e-07\naF3.9297412975264177e-07\naF0.0\naF0.0\naF0.0\naF0.0\naF0.0\naF0.0\naF0.0\naF0.0\naF0.0\naF0.0\naF0.0\naF0.0\naF0.0\naF0.0\naF0.0\naF0.0\naF0.0\naF0.0\naF0.0\naF0.0\naF0.0\naF0.0\naF0.0\naF0.0\naF0.0\naF0.0\naF0.0\naF0.0\naF0.0\naF0.0\naF0.0\naF0.0\naF0.0\naF0.25\naF0.0\naF0.0\naF0.0\naF0.0\naF0.0\naF0.0\naF0.0\naF0.0\naF0.0\naF0.0\naF0.0\naF0.0\naF0.0\naF0.0\naF0.0\naF0.0\naF0.0\naF0.0\naF0.0\naF0.0\naF0.0\naF0.0\naF0.0\naF0.0\naF0.0\naF0.0\naF0.0\naF0.0\naF0.0\naF0.0\naF0.0\naF0.0\naF0.0\naF0.0\naF0.0\naF0.0\naF0.0\naF0.0\naF0.0\naF0.0\naF0.0\naF0.0\naF0.0\naF0.0\naF0.0\naF0.0\naF0.0\naF0.0\naF0.0\naF0.0\naF0.0\naF0.0\naF0.0\naF0.0\naa(lp50\nF3.3179675422014706e-07\naF3.2657135894362567e-07\naF0.0\naF0.0\naF0.0\naF0.0\naF0.0\naF0.0\naF0.0\naF0.0\naF0.0\naF0.0\naF0.0\naF0.0\naF0.0\naF0.0\naF0.0\naF0.0\naF0.0\naF0.0\naF0.0\naF0.0\naF0.0\naF0.0\naF0.0\naF0.0\naF0.0\naF0.0\naF0.0\naF0.0\naF0.0\naF0.0\naF0.0\naF0.0\naF0.0\naF0.0\naF0.25\naF0.0\naF0.0\naF0.0\naF0.0\naF0.0\naF0.0\naF0.0\naF0.0\naF0.0\naF0.0\naF0.0\naF0.0\naF0.0\naF0.0\naF0.0\naF0.0\naF0.0\naF0.0\naF0.0\naF0.0\naF0.0\naF0.0\naF0.0\naF0.0\naF0.0\naF0.0\naF0.0\naF0.0\naF0.0\naF0.0\naF0.0\naF0.0\naF0.0\naF0.0\naF0.0\naF0.0\naF0.0\naF0.0\naF0.0\naF0.0\naF0.0\naF0.0\naF0.0\naF0.0\naF0.0\naF0.0\naF0.0\naF0.0\naF0.0\naF0.0\naF0.0\naF0.0\naF0.0\naa(lp51\nF-4.3606831348191505e-11\naF-4.283012895590143e-11\naF0.0\naF0.0\naF0.0\naF0.0\naF0.0\naF0.0\naF0.0\naF0.0\naF0.0\naF0.0\naF0.0\naF0.0\naF0.0\naF0.0\naF0.0\naF0.0\naF0.0\naF0.0\naF0.0\naF0.0\naF0.0\naF0.0\naF0.0\naF0.0\naF0.0\naF0.0\naF0.0\naF0.0\naF0.0\naF0.0\naF0.0\naF0.0\naF0.0\naF0.0\naF0.0\naF0.25\naF0.0\naF0.0\naF0.0\naF0.0\naF0.0\naF0.0\naF0.0\naF0.0\naF0.0\naF0.0\naF0.0\naF0.0\naF0.0\naF0.0\naF0.0\naF0.0\naF0.0\naF0.0\naF0.0\naF0.0\naF0.0\naF0.0\naF0.0\naF0.0\naF0.0\naF0.0\naF0.0\naF0.0\naF0.0\naF0.0\naF0.0\naF0.0\naF0.0\naF0.0\naF0.0\naF0.0\naF0.0\naF0.0\naF0.0\naF0.0\naF0.0\naF0.0\naF0.0\naF0.0\naF0.0\naF0.0\naF0.0\naF0.0\naF0.0\naF0.0\naF0.0\naF0.0\naa(lp52\nF6.183793470324723e-11\naF6.171283860691667e-11\naF0.0\naF0.0\naF0.0\naF0.0\naF0.0\naF0.0\naF0.0\naF0.0\naF0.0\naF0.0\naF0.0\naF0.0\naF0.0\naF0.0\naF0.0\naF0.0\naF0.0\naF0.0\naF0.0\naF0.0\naF0.0\naF0.0\naF0.0\naF0.0\naF0.0\naF0.0\naF0.0\naF0.0\naF0.0\naF0.0\naF0.0\naF0.0\naF0.0\naF0.0\naF0.0\naF0.0\naF2.396930789091204e-12\naF1.6716419459861247e-12\naF1.1607472845650825e-12\naF7.513628784966364e-13\naF5.599644341351611e-13\naF4.1604550374447933e-13\naF3.4680953193201233e-13\naF2.2682628371350888e-13\naF1.4274008283667731e-13\naF8.178183322499829e-14\naF5.806844626337713e-14\naF4.19005583244506e-14\naF3.724077520892636e-14\naF-1.237319681457786e-14\naF-7.823151044906769e-15\naF-8.193205277073895e-15\naF4.437707260346818e-15\naF1.2985067525758116e-14\naF5.1600927113774385e-14\naF1.0557073143825792e-13\naF1.8837779792493695e-13\naF2.4392260390720925e-13\naF3.778904975235689e-13\naF4.852938361731868e-13\naF7.771338360138378e-13\naF1.1665441132576915e-12\naF2.3968180005622622e-12\naF1.6711995182544699e-12\naF1.160335509389368e-12\naF7.5087588481934e-13\naF5.595895083042306e-13\naF4.157602945655755e-13\naF3.4655304384476435e-13\naF2.2657167964972265e-13\naF1.4252870391460277e-13\naF8.158499829212953e-14\naF5.789635197671912e-14\naF4.174215857286416e-14\naF3.710641434775316e-14\naF-1.2380292452296995e-14\naF-7.846334529551329e-15\naF-8.244319147355486e-15\naF4.3408049462262485e-15\naF1.2832388582835208e-14\naF5.143003982006013e-14\naF1.0534725903203854e-13\naF1.8816200420814116e-13\naF2.437174299229843e-13\naF3.7768291966628966e-13\naF4.84814650677342e-13\naF7.76979542702855e-13\naF1.1667250285609964e-12\naa(lp53\nF4.6799959357848774e-11\naF4.671788944084365e-11\naF0.0\naF0.0\naF0.0\naF0.0\naF0.0\naF0.0\naF0.0\naF0.0\naF0.0\naF0.0\naF0.0\naF0.0\naF0.0\naF0.0\naF0.0\naF0.0\naF0.0\naF0.0\naF0.0\naF0.0\naF0.0\naF0.0\naF0.0\naF0.0\naF0.0\naF0.0\naF0.0\naF0.0\naF0.0\naF0.0\naF0.0\naF0.0\naF0.0\naF0.0\naF0.0\naF0.0\naF1.6716419459861247e-12\naF1.3532866629111167e-12\naF9.88899022899558e-13\naF6.710726383279787e-13\naF4.866832170433982e-13\naF3.553793175303277e-13\naF2.93794963144851e-13\naF2.1777325074568898e-13\naF1.4635258265974172e-13\naF9.238568734452991e-14\naF6.298533991898735e-14\naF4.4015742772471274e-14\naF3.68757714692981e-14\naF7.090719230342714e-16\naF9.074084104075646e-15\naF1.4157367983245578e-14\naF2.360684531446346e-14\naF3.476787038029159e-14\naF6.461065865251551e-14\naF1.2416859515553222e-13\naF2.0771380304016287e-13\naF2.740364285191533e-13\naF3.632881910920593e-13\naF4.618812882227875e-13\naF6.460343656610077e-13\naF1.0026809739112377e-12\naF1.671154804994304e-12\naF1.3527642968122342e-12\naF9.884617440583397e-13\naF6.705978348765191e-13\naF4.863101122960048e-13\naF3.550910544948804e-13\naF2.935415001472377e-13\naF2.1752642796273092e-13\naF1.4613819833643045e-13\naF9.218547975205294e-14\naF6.281429913340211e-14\naF4.386499185596909e-14\naF3.675128718790263e-14\naF6.868310421663659e-16\naF9.034211694475638e-15\naF1.4088325808723763e-14\naF2.3503104759569585e-14\naF3.46099526851419e-14\naF6.443216675944014e-14\naF1.239441926300597e-13\naF2.0750435274140126e-13\naF2.7378203425738605e-13\naF3.62961764601266e-13\naF4.612703638382628e-13\naF6.455811481164845e-13\naF1.002438269931854e-12\naa(lp54\nF2.7243671064079227e-11\naF2.7175809251554488e-11\naF0.0\naF0.0\naF0.0\naF0.0\naF0.0\naF0.0\naF0.0\naF0.0\naF0.0\naF0.0\naF0.0\naF0.0\naF0.0\naF0.0\naF0.0\naF0.0\naF0.0\naF0.0\naF0.0\naF0.0\naF0.0\naF0.0\naF0.0\naF0.0\naF0.0\naF0.0\naF0.0\naF0.0\naF0.0\naF0.0\naF0.0\naF0.0\naF0.0\naF0.0\naF0.0\naF0.0\naF1.1607472845650825e-12\naF9.88899022899558e-13\naF8.098589973516525e-13\naF5.653578211246931e-13\naF4.1565715432299986e-13\naF2.9326021565957804e-13\naF2.395034091382045e-13\naF1.828516762406802e-13\naF1.3613802486622806e-13\naF9.04817352694494e-14\naF6.264198163991359e-14\naF4.249364270515175e-14\naF3.4926424011420664e-14\naF5.158647597151058e-15\naF1.4063901472640685e-14\naF2.171671747415445e-14\naF3.093363597122281e-14\naF3.6420480874640485e-14\naF5.5426522119366764e-14\naF9.460729522769063e-14\naF1.6193093913307815e-13\naF2.1894117332548336e-13\naF2.7973746541180745e-13\naF3.152048752501486e-13\naF4.1641518093299924e-13\naF6.458510665598238e-13\naF1.1603373541684747e-12\naF9.88549783573177e-13\naF8.095934660076977e-13\naF5.650306683683319e-13\naF4.1537009094208884e-13\naF2.9301583248509926e-13\naF2.392874473876982e-13\naF1.8264026865478676e-13\naF1.3595426942093575e-13\naF9.031345566287397e-14\naF6.249900129347265e-14\naF4.2371338491259695e-14\naF3.4827635391583515e-14\naF5.150826649035998e-15\naF1.4047399761821081e-14\naF2.1678002449232338e-14\naF3.087436692901721e-14\naF3.6316201918787324e-14\naF5.530091448988726e-14\naF9.445640265461328e-14\naF1.6181035326881608e-13\naF2.1878727148357465e-13\naF2.795228896260153e-13\naF3.1474371068500423e-13\naF4.1600365573443417e-13\naF6.455314337727036e-13\naa(lp55\nF1.5568826729286367e-11\naF1.5539525087823468e-11\naF0.0\naF0.0\naF0.0\naF0.0\naF0.0\naF0.0\naF0.0\naF0.0\naF0.0\naF0.0\naF0.0\naF0.0\naF0.0\naF0.0\naF0.0\naF0.0\naF0.0\naF0.0\naF0.0\naF0.0\naF0.0\naF0.0\naF0.0\naF0.0\naF0.0\naF0.0\naF0.0\naF0.0\naF0.0\naF0.0\naF0.0\naF0.0\naF0.0\naF0.0\naF0.0\naF0.0\naF7.513628784966364e-13\naF6.710726383279787e-13\naF5.653578211246931e-13\naF4.2759973902558824e-13\naF3.213055526675819e-13\naF2.2477459696374835e-13\naF1.7541513963981627e-13\naF1.3669850385147224e-13\naF1.0388813573513108e-13\naF7.454887318925909e-14\naF5.308901620744886e-14\naF3.591162524617721e-14\naF2.7998467007636456e-14\naF5.9502252424054315e-15\naF1.2336594286476976e-14\naF1.9196399119194975e-14\naF2.7020787833943004e-14\naF3.2501805721095485e-14\naF4.180699235887362e-14\naF6.808181536854786e-14\naF1.1395287365985467e-13\naF1.5893280401502224e-13\naF2.0257573048592575e-13\naF2.3353188823047646e-13\naF2.734147335955052e-13\naF4.189973046734376e-13\naF7.50924818773922e-13\naF6.707412233857699e-13\naF5.651268005195637e-13\naF4.273571011574039e-13\naF3.2109456042116325e-13\naF2.2460651183941694e-13\naF1.752565605223383e-13\naF1.3653935410896433e-13\naF1.0374684337769993e-13\naF7.44216456680113e-14\naF5.2981287105269815e-14\naF3.582195332411527e-14\naF2.792664857885639e-14\naF5.940068234719277e-15\naF1.2322040056476455e-14\naF1.9166223552221466e-14\naF2.6977693300378645e-14\naF3.2429704408840685e-14\naF4.1724303666167424e-14\naF6.797976012129444e-14\naF1.1387387885259218e-13\naF1.5883031471685232e-13\naF2.024218314583e-13\naF2.3320548475461324e-13\naF2.7306959100377095e-13\naF4.1862907420098985e-13\naa(lp56\nF5.153933151007934e-12\naF5.14282357549179e-12\naF0.0\naF0.0\naF0.0\naF0.0\naF0.0\naF0.0\naF0.0\naF0.0\naF0.0\naF0.0\naF0.0\naF0.0\naF0.0\naF0.0\naF0.0\naF0.0\naF0.0\naF0.0\naF0.0\naF0.0\naF0.0\naF0.0\naF0.0\naF0.0\naF0.0\naF0.0\naF0.0\naF0.0\naF0.0\naF0.0\naF0.0\naF0.0\naF0.0\naF0.0\naF0.0\naF0.0\naF5.599644341351611e-13\naF4.866832170433982e-13\naF4.1565715432299986e-13\naF3.213055526675819e-13\naF2.661193492687419e-13\naF1.876802952007958e-13\naF1.4697932771385119e-13\naF1.1226694623756903e-13\naF8.566850732536967e-14\naF6.217574282965022e-14\naF4.801845507263013e-14\naF3.289197639522648e-14\naF2.55344775277316e-14\naF5.6046334712643104e-15\naF1.0246127036510463e-14\naF1.4424269357692113e-14\naF2.0941536871742224e-14\naF2.6217255644656024e-14\naF3.017992175927181e-14\naF4.1209751229640795e-14\naF7.054073269272127e-14\naF9.27077693009764e-14\naF1.2624800455822178e-13\naF1.4996732390741632e-13\naF1.6481675524496225e-13\naF2.2007598671658359e-13\naF5.596737617208994e-13\naF4.864802431089179e-13\naF4.155571300588358e-13\naF3.2119472984624575e-13\naF2.6602524961991683e-13\naF1.8760017960739713e-13\naF1.4689615077075634e-13\naF1.1217103230199383e-13\naF8.557884497711978e-14\naF6.20925701395029e-14\naF4.7946201833414396e-14\naF3.2830196559732816e-14\naF2.548557627587265e-14\naF5.59211063948108e-15\naF1.0232114365975385e-14\naF1.440104142004587e-14\naF2.0910155031157093e-14\naF2.616624753292973e-14\naF3.0125544478965255e-14\naF4.114127303783237e-14\naF7.049217697222873e-14\naF9.264592992447832e-14\naF1.2615745757497738e-13\naF1.4976812081760724e-13\naF1.645941244600116e-13\naF2.1977479248497657e-13\naa(lp57\nF-4.412958648947672e-13\naF-4.695722999222774e-13\naF0.0\naF0.0\naF0.0\naF0.0\naF0.0\naF0.0\naF0.0\naF0.0\naF0.0\naF0.0\naF0.0\naF0.0\naF0.0\naF0.0\naF0.0\naF0.0\naF0.0\naF0.0\naF0.0\naF0.0\naF0.0\naF0.0\naF0.0\naF0.0\naF0.0\naF0.0\naF0.0\naF0.0\naF0.0\naF0.0\naF0.0\naF0.0\naF0.0\naF0.0\naF0.0\naF0.0\naF4.1604550374447933e-13\naF3.553793175303277e-13\naF2.9326021565957804e-13\naF2.2477459696374835e-13\naF1.876802952007958e-13\naF1.4482556654821936e-13\naF1.148069569230636e-13\naF8.768708671071793e-14\naF6.56589153406664e-14\naF4.759387114189756e-14\naF3.686529936128667e-14\naF2.7159452811235943e-14\naF2.0986244651876605e-14\naF5.036927766309271e-15\naF7.509373201623392e-15\naF1.042479097762504e-14\naF1.3815899141629966e-14\naF1.7851671378278172e-14\naF2.147061205860378e-14\naF2.9730059208316934e-14\naF4.489564615381614e-14\naF6.03723113658928e-14\naF7.777135111898954e-14\naF9.872645409940287e-14\naF1.172216520584834e-13\naF1.541010820042387e-13\naF4.1580955998969993e-13\naF3.552014564867361e-13\naF2.931720746585149e-13\naF2.2467925148227578e-13\naF1.8760516280975708e-13\naF1.4476635998002902e-13\naF1.147435156175148e-13\naF8.761768214938309e-14\naF6.55933888230042e-14\naF4.752975294621818e-14\naF3.680954609834156e-14\naF2.711133611559257e-14\naF2.0947143565995682e-14\naF5.027959526052484e-15\naF7.499650583955869e-15\naF1.0407690206054977e-14\naF1.3792038920301836e-14\naF1.7813256810824752e-14\naF2.1433419840617422e-14\naF2.9680806844188504e-14\naF4.485852974125906e-14\naF6.033073296000152e-14\naF7.771172309314004e-14\naF9.85856884173261e-14\naF1.170845058259635e-13\naF1.5391254185614298e-13\naa(lp58\nF-2.443600850584285e-12\naF-2.4524011924112037e-12\naF0.0\naF0.0\naF0.0\naF0.0\naF0.0\naF0.0\naF0.0\naF0.0\naF0.0\naF0.0\naF0.0\naF0.0\naF0.0\naF0.0\naF0.0\naF0.0\naF0.0\naF0.0\naF0.0\naF0.0\naF0.0\naF0.0\naF0.0\naF0.0\naF0.0\naF0.0\naF0.0\naF0.0\naF0.0\naF0.0\naF0.0\naF0.0\naF0.0\naF0.0\naF0.0\naF0.0\naF3.4680953193201233e-13\naF2.93794963144851e-13\naF2.395034091382045e-13\naF1.7541513963981627e-13\naF1.4697932771385119e-13\naF1.148069569230636e-13\naF9.762422834675531e-14\naF7.449468355182656e-14\naF5.5273422898624674e-14\naF3.8627094180825815e-14\naF2.9780144455954207e-14\naF2.2080448997592775e-14\naF1.7930417371237942e-14\naF4.8836670829610956e-15\naF7.068139609592163e-15\naF8.66402834187064e-15\naF1.1235237431615892e-14\naF1.3040850540339032e-14\naF1.7172091438074788e-14\naF2.5048695778195243e-14\naF3.803580477870964e-14\naF4.476943883991861e-14\naF5.686056152026181e-14\naF6.128966953840211e-14\naF7.846112983301214e-14\naF1.119076713454917e-13\naF3.466739176072809e-13\naF2.9369001800856995e-13\naF2.394629343896729e-13\naF1.7535513594180682e-13\naF1.4693486782717811e-13\naF1.1476998812777161e-13\naF9.758387366475267e-14\naF7.444818904874666e-14\naF5.5229627497364324e-14\naF3.85813539381597e-14\naF2.974033959899258e-14\naF2.204533241265466e-14\naF1.790136809329482e-14\naF4.873519321372904e-15\naF7.05753172787146e-15\naF8.648074214282612e-15\naF1.1213565742126444e-14\naF1.3007227578973206e-14\naF1.7140545493884807e-14\naF2.50058681383788e-14\naF3.8001554052343805e-14\naF4.473010936265228e-14\naF5.6808273289142754e-14\naF6.117131336109916e-14\naF7.83631396875177e-14\naF1.1178661265601677e-13\naa(lp59\nF-3.577306565780681e-12\naF-3.5786887147259713e-12\naF0.0\naF0.0\naF0.0\naF0.0\naF0.0\naF0.0\naF0.0\naF0.0\naF0.0\naF0.0\naF0.0\naF0.0\naF0.0\naF0.0\naF0.0\naF0.0\naF0.0\naF0.0\naF0.0\naF0.0\naF0.0\naF0.0\naF0.0\naF0.0\naF0.0\naF0.0\naF0.0\naF0.0\naF0.0\naF0.0\naF0.0\naF0.0\naF0.0\naF0.0\naF0.0\naF0.0\naF2.2682628371350888e-13\naF2.1777325074568898e-13\naF1.828516762406802e-13\naF1.3669850385147224e-13\naF1.1226694623756903e-13\naF8.768708671071793e-14\naF7.449468355182656e-14\naF6.077090201638013e-14\naF4.6076981938175145e-14\naF3.297727021180355e-14\naF2.489571616445439e-14\naF1.8401856896435415e-14\naF1.4726991126221954e-14\naF5.683286611451868e-15\naF8.114482233575464e-15\naF1.0120274484900716e-14\naF1.2004784975682825e-14\naF1.3632236585476909e-14\naF1.6453268200878403e-14\naF2.4331502076649373e-14\naF3.6564755280184417e-14\naF4.404135282994615e-14\naF4.9561686020569136e-14\naF5.198488459514496e-14\naF5.597035059687282e-14\naF8.286675820601365e-14\naF2.2669210266163057e-13\naF2.1768830228524576e-13\naF1.828166640452529e-13\naF1.3664819529693212e-13\naF1.1222929395570192e-13\naF8.765262378908648e-14\naF7.445743360258839e-14\naF6.072736624942962e-14\naF4.6035056706200487e-14\naF3.2934031890004427e-14\naF2.4858737552602417e-14\naF1.837006578040917e-14\naF1.470108126825e-14\naF5.67061223364493e-15\naF8.100399005769996e-15\naF1.0100894762401621e-14\naF1.198097335353202e-14\naF1.3598474236838924e-14\naF1.6419692577013385e-14\naF2.428742037828317e-14\naF3.652864324449739e-14\naF4.399723831275222e-14\naF4.950350389680944e-14\naF5.1872106388290455e-14\naF5.5864204586335347e-14\naF8.273731895834574e-14\naa(lp60\nF-4.621555108622451e-12\naF-4.623319474572676e-12\naF0.0\naF0.0\naF0.0\naF0.0\naF0.0\naF0.0\naF0.0\naF0.0\naF0.0\naF0.0\naF0.0\naF0.0\naF0.0\naF0.0\naF0.0\naF0.0\naF0.0\naF0.0\naF0.0\naF0.0\naF0.0\naF0.0\naF0.0\naF0.0\naF0.0\naF0.0\naF0.0\naF0.0\naF0.0\naF0.0\naF0.0\naF0.0\naF0.0\naF0.0\naF0.0\naF0.0\naF1.4274008283667731e-13\naF1.4635258265974172e-13\naF1.3613802486622806e-13\naF1.0388813573513108e-13\naF8.566850732536967e-14\naF6.56589153406664e-14\naF5.5273422898624674e-14\naF4.6076981938175145e-14\naF3.7101496263240104e-14\naF2.7256942169409293e-14\naF2.0621615135636114e-14\naF1.510970480643501e-14\naF1.201007382367934e-14\naF5.086899643280629e-15\naF7.29475721749332e-15\naF9.3449345804576e-15\naF1.0973865431100735e-14\naF1.1553934070060686e-14\naF1.2941878802941751e-14\naF1.7642260976234705e-14\naF2.6999479876002202e-14\naF3.2749650968068714e-14\naF3.4473249130194575e-14\naF2.836710508882806e-14\naF2.3691808644231662e-14\naF3.490038610418178e-14\naF1.4264109345996186e-13\naF1.463017079879328e-13\naF1.3612281801791526e-13\naF1.0385580230071791e-13\naF8.563974016243786e-14\naF6.562951048059554e-14\naF5.524146994298038e-14\naF4.603942401989766e-14\naF3.7064949061828716e-14\naF2.7220206842458785e-14\naF2.0590384573819948e-14\naF1.5083348537898093e-14\naF1.1988900278597849e-14\naF5.077706351362943e-15\naF7.285030848938764e-15\naF9.331077900966157e-15\naF1.0958058883190146e-14\naF1.1530503886023024e-14\naF1.2918171729441199e-14\naF1.761172027000473e-14\naF2.6978150355569458e-14\naF3.272296987541399e-14\naF3.4438083814066255e-14\naF2.828972969077285e-14\naF2.3612015500494925e-14\naF3.479383864147715e-14\naa(lp61\nF-4.834062946568098e-12\naF-4.835276229131476e-12\naF0.0\naF0.0\naF0.0\naF0.0\naF0.0\naF0.0\naF0.0\naF0.0\naF0.0\naF0.0\naF0.0\naF0.0\naF0.0\naF0.0\naF0.0\naF0.0\naF0.0\naF0.0\naF0.0\naF0.0\naF0.0\naF0.0\naF0.0\naF0.0\naF0.0\naF0.0\naF0.0\naF0.0\naF0.0\naF0.0\naF0.0\naF0.0\naF0.0\naF0.0\naF0.0\naF0.0\naF8.178183322499829e-14\naF9.238568734452991e-14\naF9.04817352694494e-14\naF7.454887318925909e-14\naF6.217574282965022e-14\naF4.759387114189756e-14\naF3.8627094180825815e-14\naF3.297727021180355e-14\naF2.7256942169409293e-14\naF2.1285098707368155e-14\naF1.6350932606850563e-14\naF1.2038817583826266e-14\naF9.312283581832883e-15\naF4.245436093924575e-15\naF5.936809003804557e-15\naF7.713271271949838e-15\naF9.113009744244904e-15\naF9.594103836030314e-15\naF9.80024657118416e-15\naF1.2787270416502916e-14\naF1.9239331139215026e-14\naF2.4217137585532377e-14\naF2.5060244037002237e-14\naF1.975232623499253e-14\naF9.331625745187908e-15\naF1.241801861366663e-14\naF8.16909642173102e-14\naF9.233726057232052e-14\naF9.0464109356769e-14\naF7.452423240212389e-14\naF6.215392791968399e-14\naF4.757267063702243e-14\naF3.8602056698381623e-14\naF3.29470242352856e-14\naF2.7227072939391998e-14\naF2.1254987472694816e-14\naF1.6325242723981848e-14\naF1.2017507558815519e-14\naF9.295271274237292e-15\naF4.2377850667127116e-15\naF5.929005334046458e-15\naF7.702549965952659e-15\naF9.10175995573912e-15\naF9.5783821905973e-15\naF9.785721559258801e-15\naF1.2767610112796932e-14\naF1.9226339960740027e-14\naF2.4200684139552347e-14\naF2.5039506728196798e-14\naF1.9704544896841584e-14\naF9.274410883840871e-15\naF1.2329993916030478e-14\naa(lp62\nF-5.051887312214575e-12\naF-5.047502202537203e-12\naF0.0\naF0.0\naF0.0\naF0.0\naF0.0\naF0.0\naF0.0\naF0.0\naF0.0\naF0.0\naF0.0\naF0.0\naF0.0\naF0.0\naF0.0\naF0.0\naF0.0\naF0.0\naF0.0\naF0.0\naF0.0\naF0.0\naF0.0\naF0.0\naF0.0\naF0.0\naF0.0\naF0.0\naF0.0\naF0.0\naF0.0\naF0.0\naF0.0\naF0.0\naF0.0\naF0.0\naF5.806844626337713e-14\naF6.298533991898735e-14\naF6.264198163991359e-14\naF5.308901620744886e-14\naF4.801845507263013e-14\naF3.686529936128667e-14\naF2.9780144455954207e-14\naF2.489571616445439e-14\naF2.0621615135636114e-14\naF1.6350932606850563e-14\naF1.3285961793782106e-14\naF9.893266541566892e-15\naF7.664503392427829e-15\naF3.4050966723631905e-15\naF4.6906598324808686e-15\naF5.87288957372924e-15\naF7.037346996594295e-15\naF7.602291558424117e-15\naF7.31391213857628e-15\naF8.211833794905293e-15\naF1.232568873088193e-14\naF1.4054553497363103e-14\naF1.458799165901671e-14\naF1.0412032359489684e-14\naF-1.0930146988047171e-16\naF-6.591730428928878e-15\naF5.801202092664782e-14\naF6.295628645374233e-14\naF6.264077909505343e-14\naF5.3082579522426185e-14\naF4.8013495662786207e-14\naF3.685733150145523e-14\naF2.9767468934956156e-14\naF2.4876407373179635e-14\naF2.0601256031413164e-14\naF1.6329239529174095e-14\naF1.3266885907116252e-14\naF9.876862245420455e-15\naF7.651456591362966e-15\naF3.3983368788802073e-15\naF4.6840319340965264e-15\naF5.864573204190059e-15\naF7.029077049462542e-15\naF7.591195412014083e-15\naF7.30482871762586e-15\naF8.198962984128631e-15\naF1.231875119742095e-14\naF1.4046817868297006e-14\naF1.4580840036107867e-14\naF1.038904284671218e-14\naF-1.3912316328723894e-16\naF-6.654689312498993e-15\naa(lp63\nF-5.118348983322818e-12\naF-5.115344482883967e-12\naF0.0\naF0.0\naF0.0\naF0.0\naF0.0\naF0.0\naF0.0\naF0.0\naF0.0\naF0.0\naF0.0\naF0.0\naF0.0\naF0.0\naF0.0\naF0.0\naF0.0\naF0.0\naF0.0\naF0.0\naF0.0\naF0.0\naF0.0\naF0.0\naF0.0\naF0.0\naF0.0\naF0.0\naF0.0\naF0.0\naF0.0\naF0.0\naF0.0\naF0.0\naF0.0\naF0.0\naF4.19005583244506e-14\naF4.4015742772471274e-14\naF4.249364270515175e-14\naF3.591162524617721e-14\naF3.289197639522648e-14\naF2.7159452811235943e-14\naF2.2080448997592775e-14\naF1.8401856896435415e-14\naF1.510970480643501e-14\naF1.2038817583826266e-14\naF9.893266541566892e-15\naF7.755259428451406e-15\naF6.0450283323083836e-15\naF2.7378054792047026e-15\naF3.5690881529064485e-15\naF4.427024473515698e-15\naF5.0538124664012074e-15\naF5.427740805293267e-15\naF5.334867139312136e-15\naF5.985005112326201e-15\naF8.035032953793297e-15\naF9.115441264039926e-15\naF8.038224171027942e-15\naF4.948289390486028e-15\naF-1.90873987564907e-15\naF-7.86461821661632e-15\naF4.1862042371602884e-14\naF4.399352893940437e-14\naF4.24938393485268e-14\naF3.590768988676849e-14\naF3.288996316839291e-14\naF2.715535965675493e-14\naF2.2072310293071452e-14\naF1.8388558695079513e-14\naF1.509514594143264e-14\naF1.2022420700214345e-14\naF9.878669366524136e-15\naF7.742306574643049e-15\naF6.0344345015815664e-15\naF2.7328021426288263e-15\naF3.564252454944441e-15\naF4.421212744579969e-15\naF5.04832512760147e-15\naF5.4207631387980225e-15\naF5.330410677711868e-15\naF5.977817010968787e-15\naF8.032692917105688e-15\naF9.11477920558197e-15\naF8.040742808467294e-15\naF4.940380486898955e-15\naF-1.916982396584259e-15\naF-7.897064966573243e-15\naa(lp64\nF-4.70547991412667e-12\naF-4.700747786358892e-12\naF0.0\naF0.0\naF0.0\naF0.0\naF0.0\naF0.0\naF0.0\naF0.0\naF0.0\naF0.0\naF0.0\naF0.0\naF0.0\naF0.0\naF0.0\naF0.0\naF0.0\naF0.0\naF0.0\naF0.0\naF0.0\naF0.0\naF0.0\naF0.0\naF0.0\naF0.0\naF0.0\naF0.0\naF0.0\naF0.0\naF0.0\naF0.0\naF0.0\naF0.0\naF0.0\naF0.0\naF3.724077520892636e-14\naF3.68757714692981e-14\naF3.4926424011420664e-14\naF2.7998467007636456e-14\naF2.55344775277316e-14\naF2.0986244651876605e-14\naF1.7930417371237942e-14\naF1.4726991126221954e-14\naF1.201007382367934e-14\naF9.312283581832883e-15\naF7.664503392427829e-15\naF6.0450283323083836e-15\naF4.899496019733401e-15\naF2.3508288119635085e-15\naF3.0879874777929076e-15\naF3.6901906582800955e-15\naF4.224552487563234e-15\naF4.340415737046688e-15\naF4.584651144695691e-15\naF5.440160142183752e-15\naF7.47078222660868e-15\naF7.637754349118939e-15\naF6.7125387712785844e-15\naF2.6086681838314487e-15\naF-1.7632500041161338e-15\naF-5.2142500407437474e-15\naF3.7227557457139386e-14\naF3.6869716743722296e-14\naF3.4936080996133066e-14\naF2.8000739365750708e-14\naF2.553733343077662e-14\naF2.0985838551629528e-14\naF1.792685078043337e-14\naF1.4718736482715963e-14\naF1.2000635815931631e-14\naF9.30067536365341e-15\naF7.653973848115113e-15\naF6.035297234439472e-15\naF4.891347389735101e-15\naF2.3463024532429814e-15\naF3.083522780095705e-15\naF3.6851467795640196e-15\naF4.219767493580878e-15\naF4.33438605951439e-15\naF4.580717260872056e-15\naF5.433871192598612e-15\naF7.468559760873672e-15\naF7.637342535049237e-15\naF6.715812378551954e-15\naF2.6032744891971287e-15\naF-1.7655682753327083e-15\naF-5.232847109033613e-15\naa(lp65\nF-5.678164215525417e-12\naF-5.683550901024948e-12\naF0.0\naF0.0\naF0.0\naF0.0\naF0.0\naF0.0\naF0.0\naF0.0\naF0.0\naF0.0\naF0.0\naF0.0\naF0.0\naF0.0\naF0.0\naF0.0\naF0.0\naF0.0\naF0.0\naF0.0\naF0.0\naF0.0\naF0.0\naF0.0\naF0.0\naF0.0\naF0.0\naF0.0\naF0.0\naF0.0\naF0.0\naF0.0\naF0.0\naF0.0\naF0.0\naF0.0\naF-1.237319681457786e-14\naF7.090719230342714e-16\naF5.158647597151058e-15\naF5.9502252424054315e-15\naF5.6046334712643104e-15\naF5.036927766309271e-15\naF4.8836670829610956e-15\naF5.683286611451868e-15\naF5.086899643280629e-15\naF4.245436093924575e-15\naF3.4050966723631905e-15\naF2.7378054792047026e-15\naF2.3508288119635085e-15\naF4.942662107035e-15\naF6.472188654447066e-15\naF7.848487501686012e-15\naF9.122001179907273e-15\naF1.0603122296237872e-14\naF1.3007903268044266e-14\naF1.6776866523731825e-14\naF2.1823692741190956e-14\naF2.406531543321981e-14\naF2.4484019500566007e-14\naF2.371094980809314e-14\naF2.248252232091851e-14\naF2.3560854085113734e-14\naF-1.234602942262618e-14\naF7.372719544744196e-16\naF5.197100901619805e-15\naF5.974987875126301e-15\naF5.628302759883768e-15\naF5.0519110059615965e-15\naF4.893773832909779e-15\naF5.687823091389285e-15\naF5.086972974518334e-15\naF4.241253829738718e-15\naF3.4011803304977185e-15\naF2.7344788861840605e-15\naF2.348028341128707e-15\naF4.932226906322893e-15\naF6.460034652284857e-15\naF7.834495862047354e-15\naF9.106333729000157e-15\naF1.0584702701994026e-14\naF1.2987544330289692e-14\naF1.6753286546890703e-14\naF2.1800611342486423e-14\naF2.4042462835193978e-14\naF2.446057524036024e-14\naF2.3685375230217485e-14\naF2.246200756102705e-14\naF2.3540706767651634e-14\naa(lp66\nF-5.8652051913570195e-12\naF-5.871723510926281e-12\naF0.0\naF0.0\naF0.0\naF0.0\naF0.0\naF0.0\naF0.0\naF0.0\naF0.0\naF0.0\naF0.0\naF0.0\naF0.0\naF0.0\naF0.0\naF0.0\naF0.0\naF0.0\naF0.0\naF0.0\naF0.0\naF0.0\naF0.0\naF0.0\naF0.0\naF0.0\naF0.0\naF0.0\naF0.0\naF0.0\naF0.0\naF0.0\naF0.0\naF0.0\naF0.0\naF0.0\naF-7.823151044906769e-15\naF9.074084104075646e-15\naF1.4063901472640685e-14\naF1.2336594286476976e-14\naF1.0246127036510463e-14\naF7.509373201623392e-15\naF7.068139609592163e-15\naF8.114482233575464e-15\naF7.29475721749332e-15\naF5.936809003804557e-15\naF4.6906598324808686e-15\naF3.5690881529064485e-15\naF3.0879874777929076e-15\naF6.472188654447066e-15\naF8.883024890877106e-15\naF1.0915420390075901e-14\naF1.2866750609894811e-14\naF1.4890314997014686e-14\naF1.8472959947962897e-14\naF2.422611764985542e-14\naF3.3327053864578977e-14\naF3.747181191674343e-14\naF3.9624833871282595e-14\naF3.845704304147184e-14\naF3.7894549622218714e-14\naF4.2102578659225696e-14\naF-7.777584626113401e-15\naF9.120065478891733e-15\naF1.4118055843574635e-14\naF1.2370538439412357e-14\naF1.027738212271264e-14\naF7.527684170967761e-15\naF7.080570263165772e-15\naF8.119020138747935e-15\naF7.293400041317451e-15\naF5.92963773289181e-15\naF4.684029854004415e-15\naF3.56333007609208e-15\naF3.0832717397395187e-15\naF6.458276112651441e-15\naF8.866374300072667e-15\naF1.0895754033396804e-14\naF1.2844244521852875e-14\naF1.4863084253538058e-14\naF1.8441716523403675e-14\naF2.419043875171796e-14\naF3.3292427636786964e-14\naF3.743599004587065e-14\naF3.958683973953323e-14\naF3.841431129624111e-14\naF3.785717083875907e-14\naF4.207237225993888e-14\naa(lp67\nF-5.869582601903815e-12\naF-5.880585161250365e-12\naF0.0\naF0.0\naF0.0\naF0.0\naF0.0\naF0.0\naF0.0\naF0.0\naF0.0\naF0.0\naF0.0\naF0.0\naF0.0\naF0.0\naF0.0\naF0.0\naF0.0\naF0.0\naF0.0\naF0.0\naF0.0\naF0.0\naF0.0\naF0.0\naF0.0\naF0.0\naF0.0\naF0.0\naF0.0\naF0.0\naF0.0\naF0.0\naF0.0\naF0.0\naF0.0\naF0.0\naF-8.193205277073895e-15\naF1.4157367983245578e-14\naF2.171671747415445e-14\naF1.9196399119194975e-14\naF1.4424269357692113e-14\naF1.042479097762504e-14\naF8.66402834187064e-15\naF1.0120274484900716e-14\naF9.3449345804576e-15\naF7.713271271949838e-15\naF5.87288957372924e-15\naF4.427024473515698e-15\naF3.6901906582800955e-15\naF7.848487501686012e-15\naF1.0915420390075901e-14\naF1.394635720020244e-14\naF1.6555015487617966e-14\naF1.931006250649768e-14\naF2.3864333226203102e-14\naF3.1413967617672587e-14\naF4.343401533145039e-14\naF5.188473607024734e-14\naF5.579357600905523e-14\naF5.621025089484674e-14\naF5.5916430018915195e-14\naF6.301057450642728e-14\naF-8.142725032560375e-15\naF1.4210417844951682e-14\naF2.1779035170003968e-14\naF1.9233333822828382e-14\naF1.4456722923986994e-14\naF1.0442552188462949e-14\naF8.674801244458941e-15\naF1.0122755031778013e-14\naF9.340783392814262e-15\naF7.702637152732661e-15\naF5.863344641828748e-15\naF4.419046587373805e-15\naF3.683765706592427e-15\naF7.833019485587116e-15\naF1.0896604737929958e-14\naF1.3923493354795228e-14\naF1.652859715256726e-14\naF1.9277692122096066e-14\naF2.3826471779664995e-14\naF3.1371790449060423e-14\naF4.3394167814092804e-14\naF5.184414673948235e-14\naF5.57486100528847e-14\naF5.6157292097871914e-14\naF5.586701767572222e-14\naF6.297419743649183e-14\naa(lp68\nF-5.3450920009423535e-12\naF-5.356019035480691e-12\naF0.0\naF0.0\naF0.0\naF0.0\naF0.0\naF0.0\naF0.0\naF0.0\naF0.0\naF0.0\naF0.0\naF0.0\naF0.0\naF0.0\naF0.0\naF0.0\naF0.0\naF0.0\naF0.0\naF0.0\naF0.0\naF0.0\naF0.0\naF0.0\naF0.0\naF0.0\naF0.0\naF0.0\naF0.0\naF0.0\naF0.0\naF0.0\naF0.0\naF0.0\naF0.0\naF0.0\naF4.437707260346818e-15\naF2.360684531446346e-14\naF3.093363597122281e-14\naF2.7020787833943004e-14\naF2.0941536871742224e-14\naF1.3815899141629966e-14\naF1.1235237431615892e-14\naF1.2004784975682825e-14\naF1.0973865431100735e-14\naF9.113009744244904e-15\naF7.037346996594295e-15\naF5.0538124664012074e-15\naF4.224552487563234e-15\naF9.122001179907273e-15\naF1.2866750609894811e-14\naF1.6555015487617966e-14\naF2.0454270505688733e-14\naF2.402692654321622e-14\naF2.987127425392379e-14\naF3.874566208047185e-14\naF5.4238620072858954e-14\naF6.527649578145959e-14\naF7.466456341101548e-14\naF7.667791888919408e-14\naF7.833134982448934e-14\naF8.481659565700113e-14\naF4.52068226575622e-15\naF2.3686594040049697e-14\naF3.1024577544309714e-14\naF2.7077769952533394e-14\naF2.0989957354024564e-14\naF1.3843356754894637e-14\naF1.1252487011586298e-14\naF1.2010133391368199e-14\naF1.0971226680541827e-14\naF9.101988661052402e-15\naF7.027274795547434e-15\naF5.045292337004645e-15\naF4.2179241145044515e-15\naF9.104862988646456e-15\naF1.2845978836381448e-14\naF1.652952265055546e-14\naF2.0424097332928118e-14\naF2.3989127119745583e-14\naF2.982664167217934e-14\naF3.8695305856663274e-14\naF5.419093676022944e-14\naF6.522875382999747e-14\naF7.461354749537418e-14\naF7.661673094135875e-14\naF7.82748649969555e-14\naF8.476955474422139e-14\naa(lp69\nF-4.184725163277057e-12\naF-4.203658366633818e-12\naF0.0\naF0.0\naF0.0\naF0.0\naF0.0\naF0.0\naF0.0\naF0.0\naF0.0\naF0.0\naF0.0\naF0.0\naF0.0\naF0.0\naF0.0\naF0.0\naF0.0\naF0.0\naF0.0\naF0.0\naF0.0\naF0.0\naF0.0\naF0.0\naF0.0\naF0.0\naF0.0\naF0.0\naF0.0\naF0.0\naF0.0\naF0.0\naF0.0\naF0.0\naF0.0\naF0.0\naF1.2985067525758116e-14\naF3.476787038029159e-14\naF3.6420480874640485e-14\naF3.2501805721095485e-14\naF2.6217255644656024e-14\naF1.7851671378278172e-14\naF1.3040850540339032e-14\naF1.3632236585476909e-14\naF1.1553934070060686e-14\naF9.594103836030314e-15\naF7.602291558424117e-15\naF5.427740805293267e-15\naF4.340415737046688e-15\naF1.0603122296237872e-14\naF1.4890314997014686e-14\naF1.931006250649768e-14\naF2.402692654321622e-14\naF3.006399163820736e-14\naF3.755560987833889e-14\naF4.882640354104157e-14\naF6.708613894647372e-14\naF8.157972343572022e-14\naF9.481981934333689e-14\naF1.088423776911645e-13\naF1.1573498969485232e-13\naF1.2703349810526793e-13\naF1.307953555423416e-14\naF3.4855172745614844e-14\naF3.6523883821676894e-14\naF3.256964850335172e-14\naF2.627860665484948e-14\naF1.7890304326240643e-14\naF1.3067087360202337e-14\naF1.3644031864795843e-14\naF1.1554027124020677e-14\naF9.583840299699777e-15\naF7.592586305714779e-15\naF5.419697129214036e-15\naF4.33441037387392e-15\naF1.0583655168211415e-14\naF1.4866191802557596e-14\naF1.9280041874833686e-14\naF2.399036136147916e-14\naF3.001696169612714e-14\naF3.749994086965415e-14\naF4.876463246341715e-14\naF6.702612615386906e-14\naF8.15186024989096e-14\naF9.474783244815819e-14\naF1.0875659954016746e-13\naF1.1565097544292891e-13\naF1.2696126067455695e-13\naa(lp70\nF-2.9475682525767746e-12\naF-2.9817811096645077e-12\naF0.0\naF0.0\naF0.0\naF0.0\naF0.0\naF0.0\naF0.0\naF0.0\naF0.0\naF0.0\naF0.0\naF0.0\naF0.0\naF0.0\naF0.0\naF0.0\naF0.0\naF0.0\naF0.0\naF0.0\naF0.0\naF0.0\naF0.0\naF0.0\naF0.0\naF0.0\naF0.0\naF0.0\naF0.0\naF0.0\naF0.0\naF0.0\naF0.0\naF0.0\naF0.0\naF0.0\naF5.1600927113774385e-14\naF6.461065865251551e-14\naF5.5426522119366764e-14\naF4.180699235887362e-14\naF3.017992175927181e-14\naF2.147061205860378e-14\naF1.7172091438074788e-14\naF1.6453268200878403e-14\naF1.2941878802941751e-14\naF9.80024657118416e-15\naF7.31391213857628e-15\naF5.334867139312136e-15\naF4.584651144695691e-15\naF1.3007903268044266e-14\naF1.8472959947962897e-14\naF2.3864333226203102e-14\naF2.987127425392379e-14\naF3.755560987833889e-14\naF5.024019923893292e-14\naF6.77017931264467e-14\naF9.332723661194629e-14\naF1.1258699948201254e-13\naF1.3110035643911914e-13\naF1.487785878917763e-13\naF1.7287607706054686e-13\naF2.0206672330565094e-13\naF5.174351274896349e-14\naF6.473237519877474e-14\naF5.5562178780445095e-14\naF4.189552798485132e-14\naF3.025922314338727e-14\naF2.152340534944145e-14\naF1.7210092954154082e-14\naF1.647416176086681e-14\naF1.2947034523813117e-14\naF9.791380908801644e-15\naF7.305013438511913e-15\naF5.327170059918906e-15\naF4.578885862072483e-15\naF1.2984841803612042e-14\naF1.8443767554254838e-14\naF2.3827352242194344e-14\naF2.982476023648114e-14\naF3.749398181699259e-14\naF5.0165045020180184e-14\naF6.761674378452575e-14\naF9.324044360214704e-14\naF1.1249623883924617e-13\naF1.3099445580163338e-13\naF1.4865125714450026e-13\naF1.7276517163544922e-13\naF2.0200063036580803e-13\naa(lp71\nF-5.034124335093616e-13\naF-5.563877263766503e-13\naF0.0\naF0.0\naF0.0\naF0.0\naF0.0\naF0.0\naF0.0\naF0.0\naF0.0\naF0.0\naF0.0\naF0.0\naF0.0\naF0.0\naF0.0\naF0.0\naF0.0\naF0.0\naF0.0\naF0.0\naF0.0\naF0.0\naF0.0\naF0.0\naF0.0\naF0.0\naF0.0\naF0.0\naF0.0\naF0.0\naF0.0\naF0.0\naF0.0\naF0.0\naF0.0\naF0.0\naF1.0557073143825792e-13\naF1.2416859515553222e-13\naF9.460729522769063e-14\naF6.808181536854786e-14\naF4.1209751229640795e-14\naF2.9730059208316934e-14\naF2.5048695778195243e-14\naF2.4331502076649373e-14\naF1.7642260976234705e-14\naF1.2787270416502916e-14\naF8.211833794905293e-15\naF5.985005112326201e-15\naF5.440160142183752e-15\naF1.6776866523731825e-14\naF2.422611764985542e-14\naF3.1413967617672587e-14\naF3.874566208047185e-14\naF4.882640354104157e-14\naF6.77017931264467e-14\naF9.84533038603993e-14\naF1.3738076948613183e-13\naF1.6681535638996155e-13\naF1.904018617646236e-13\naF2.1385948319122148e-13\naF2.533373134058668e-13\naF3.3412588206958993e-13\naF1.0572352420722605e-13\naF1.2428529342534812e-13\naF9.473502188739796e-14\naF6.815730542616801e-14\naF4.1282684455373856e-14\naF2.9780910028562306e-14\naF2.5084952870732513e-14\naF2.4349097424006416e-14\naF1.7640734047750203e-14\naF1.2768988313320064e-14\naF8.195109887259492e-15\naF5.971430344312396e-15\naF5.429025782566338e-15\naF1.674486807658687e-14\naF2.41846122354825e-14\naF3.1360822460304625e-14\naF3.867845408186458e-14\naF4.873683787515435e-14\naF6.759174142530921e-14\naF9.832695010406535e-14\naF1.37246470482702e-13\naF1.6666943762884715e-13\naF1.902300415238431e-13\naF2.1364692044703996e-13\naF2.5315112324270137e-13\naF3.3403159089362963e-13\naa(lp72\nF4.780972089796844e-12\naF4.7183051290167155e-12\naF0.0\naF0.0\naF0.0\naF0.0\naF0.0\naF0.0\naF0.0\naF0.0\naF0.0\naF0.0\naF0.0\naF0.0\naF0.0\naF0.0\naF0.0\naF0.0\naF0.0\naF0.0\naF0.0\naF0.0\naF0.0\naF0.0\naF0.0\naF0.0\naF0.0\naF0.0\naF0.0\naF0.0\naF0.0\naF0.0\naF0.0\naF0.0\naF0.0\naF0.0\naF0.0\naF0.0\naF1.8837779792493695e-13\naF2.0771380304016287e-13\naF1.6193093913307815e-13\naF1.1395287365985467e-13\naF7.054073269272127e-14\naF4.489564615381614e-14\naF3.803580477870964e-14\naF3.6564755280184417e-14\naF2.6999479876002202e-14\naF1.9239331139215026e-14\naF1.232568873088193e-14\naF8.035032953793297e-15\naF7.47078222660868e-15\naF2.1823692741190956e-14\naF3.3327053864578977e-14\naF4.343401533145039e-14\naF5.4238620072858954e-14\naF6.708613894647372e-14\naF9.332723661194629e-14\naF1.3738076948613183e-13\naF2.0168957872459102e-13\naF2.465119790519026e-13\naF2.868883583220463e-13\naF3.1612591067631055e-13\naF3.7256964690500503e-13\naF4.940488033168401e-13\naF1.8860906523614472e-13\naF2.0789297603303063e-13\naF1.6210318414126395e-13\naF1.1405112888099325e-13\naF7.063315633276229e-14\naF4.495456610627694e-14\naF3.8076853648000916e-14\naF3.65776268794327e-14\naF2.6988610103555082e-14\naF1.9206077899650674e-14\naF1.2295887916411573e-14\naF8.010515366996741e-15\naF7.450870386067713e-15\naF2.178007930618452e-14\naF3.326994868839174e-14\naF4.33597723208458e-14\naF5.414370250290325e-14\naF6.695935938247644e-14\naF9.31681484575672e-14\naF1.3719818574639843e-13\naF2.0149519348022497e-13\naF2.462920112635945e-13\naF2.866276789797087e-13\naF3.1580437309396895e-13\naF3.72273053937258e-13\naF4.938929329083707e-13\naa(lp73\nF1.1302806396461286e-11\naF1.1200403055147753e-11\naF0.0\naF0.0\naF0.0\naF0.0\naF0.0\naF0.0\naF0.0\naF0.0\naF0.0\naF0.0\naF0.0\naF0.0\naF0.0\naF0.0\naF0.0\naF0.0\naF0.0\naF0.0\naF0.0\naF0.0\naF0.0\naF0.0\naF0.0\naF0.0\naF0.0\naF0.0\naF0.0\naF0.0\naF0.0\naF0.0\naF0.0\naF0.0\naF0.0\naF0.0\naF0.0\naF0.0\naF2.4392260390720925e-13\naF2.740364285191533e-13\naF2.1894117332548336e-13\naF1.5893280401502224e-13\naF9.27077693009764e-14\naF6.03723113658928e-14\naF4.476943883991861e-14\naF4.404135282994615e-14\naF3.2749650968068714e-14\naF2.4217137585532377e-14\naF1.4054553497363103e-14\naF9.115441264039926e-15\naF7.637754349118939e-15\naF2.406531543321981e-14\naF3.747181191674343e-14\naF5.188473607024734e-14\naF6.527649578145959e-14\naF8.157972343572022e-14\naF1.1258699948201254e-13\naF1.6681535638996155e-13\naF2.465119790519026e-13\naF3.2384952290397725e-13\naF3.844460059263765e-13\naF4.409568516343953e-13\naF5.178638805981285e-13\naF6.799923678207857e-13\naF2.4415033828588037e-13\naF2.7420391014260414e-13\naF2.1909451808250744e-13\naF1.5899879352854906e-13\naF9.276280401963428e-14\naF6.040004166506619e-14\naF4.478056155731767e-14\naF4.4029574978655213e-14\naF3.2717587944579616e-14\naF2.4163981100604656e-14\naF1.4009175294152668e-14\naF9.08061740277221e-15\naF7.609986654113573e-15\naF2.4027742717050196e-14\naF3.7419961943827064e-14\naF5.1812821816290235e-14\naF6.518171802695122e-14\naF8.145134940591822e-14\naF1.1242101613628535e-13\naF1.6662827712480897e-13\naF2.463128251452109e-13\naF3.23620044944007e-13\naF3.841594959276382e-13\naF4.405890713087685e-13\naF5.175024679205125e-13\naF6.798096667543152e-13\naa(lp74\nF2.342803876517168e-11\naF2.3311145793854155e-11\naF0.0\naF0.0\naF0.0\naF0.0\naF0.0\naF0.0\naF0.0\naF0.0\naF0.0\naF0.0\naF0.0\naF0.0\naF0.0\naF0.0\naF0.0\naF0.0\naF0.0\naF0.0\naF0.0\naF0.0\naF0.0\naF0.0\naF0.0\naF0.0\naF0.0\naF0.0\naF0.0\naF0.0\naF0.0\naF0.0\naF0.0\naF0.0\naF0.0\naF0.0\naF0.0\naF0.0\naF3.778904975235689e-13\naF3.632881910920593e-13\naF2.7973746541180745e-13\naF2.0257573048592575e-13\naF1.2624800455822178e-13\naF7.777135111898954e-14\naF5.686056152026181e-14\naF4.9561686020569136e-14\naF3.4473249130194575e-14\naF2.5060244037002237e-14\naF1.458799165901671e-14\naF8.038224171027942e-15\naF6.7125387712785844e-15\naF2.4484019500566007e-14\naF3.9624833871282595e-14\naF5.579357600905523e-14\naF7.466456341101548e-14\naF9.481981934333689e-14\naF1.3110035643911914e-13\naF1.904018617646236e-13\naF2.868883583220463e-13\naF3.844460059263765e-13\naF4.898816195831869e-13\naF5.810996656616368e-13\naF6.95683968209e-13\naF8.771521715980645e-13\naF3.7829043515530414e-13\naF3.6356308362152634e-13\naF2.7998506964427906e-13\naF2.0269697934650162e-13\naF1.2634025973795404e-13\naF7.78186516940276e-14\naF5.688161472333214e-14\naF4.954941507694853e-14\naF3.4442008567335675e-14\naF2.500365286748497e-14\naF1.4540322210981044e-14\naF8.002363841004988e-15\naF6.684858562342607e-15\naF2.445376763732136e-14\naF3.958080662693679e-14\naF5.57285639552814e-14\naF7.457200007228154e-14\naF9.469270472844307e-14\naF1.309329836390485e-13\naF1.9021156441769067e-13\naF2.866820885955955e-13\naF3.8420713378418185e-13\naF4.895835326893727e-13\naF5.807172894079668e-13\naF6.953126524467252e-13\naF8.76964765351508e-13\naa(lp75\nF3.805448993536871e-11\naF3.7844932551698035e-11\naF0.0\naF0.0\naF0.0\naF0.0\naF0.0\naF0.0\naF0.0\naF0.0\naF0.0\naF0.0\naF0.0\naF0.0\naF0.0\naF0.0\naF0.0\naF0.0\naF0.0\naF0.0\naF0.0\naF0.0\naF0.0\naF0.0\naF0.0\naF0.0\naF0.0\naF0.0\naF0.0\naF0.0\naF0.0\naF0.0\naF0.0\naF0.0\naF0.0\naF0.0\naF0.0\naF0.0\naF4.852938361731868e-13\naF4.618812882227875e-13\naF3.152048752501486e-13\naF2.3353188823047646e-13\naF1.4996732390741632e-13\naF9.872645409940287e-14\naF6.128966953840211e-14\naF5.198488459514496e-14\naF2.836710508882806e-14\naF1.975232623499253e-14\naF1.0412032359489684e-14\naF4.948289390486028e-15\naF2.6086681838314487e-15\naF2.371094980809314e-14\naF3.845704304147184e-14\naF5.621025089484674e-14\naF7.667791888919408e-14\naF1.088423776911645e-13\naF1.487785878917763e-13\naF2.1385948319122148e-13\naF3.1612591067631055e-13\naF4.409568516343953e-13\naF5.810996656616368e-13\naF7.893854748941261e-13\naF9.721944077993873e-13\naF1.1997863348557716e-12\naF4.857134030419451e-13\naF4.621303346710982e-13\naF3.1542232326804557e-13\naF2.3362273378851353e-13\naF1.5004949930013057e-13\naF9.877777333930364e-14\naF6.131056160232506e-14\naF5.197333307817906e-14\naF2.8332241075809083e-14\naF1.9692136212718012e-14\naF1.0362256496336089e-14\naF4.912691187469312e-15\naF2.5814234447061996e-15\naF2.3689852050980167e-14\naF3.841834243105647e-14\naF5.6146712741562223e-14\naF7.657843487789111e-14\naF1.0870798698640401e-13\naF1.4860397351948462e-13\naF2.1366516733112968e-13\naF3.159094760816362e-13\naF4.406951478668909e-13\naF5.807269289321657e-13\naF7.889294876216802e-13\naF9.717415387358003e-13\naF1.1995281353476671e-12\naa(lp76\nF5.658882566311659e-11\naF5.6279579815340324e-11\naF0.0\naF0.0\naF0.0\naF0.0\naF0.0\naF0.0\naF0.0\naF0.0\naF0.0\naF0.0\naF0.0\naF0.0\naF0.0\naF0.0\naF0.0\naF0.0\naF0.0\naF0.0\naF0.0\naF0.0\naF0.0\naF0.0\naF0.0\naF0.0\naF0.0\naF0.0\naF0.0\naF0.0\naF0.0\naF0.0\naF0.0\naF0.0\naF0.0\naF0.0\naF0.0\naF0.0\naF7.771338360138378e-13\naF6.460343656610077e-13\naF4.1641518093299924e-13\naF2.734147335955052e-13\naF1.6481675524496225e-13\naF1.172216520584834e-13\naF7.846112983301214e-14\naF5.597035059687282e-14\naF2.3691808644231662e-14\naF9.331625745187908e-15\naF-1.0930146988047171e-16\naF-1.90873987564907e-15\naF-1.7632500041161338e-15\naF2.248252232091851e-14\naF3.7894549622218714e-14\naF5.5916430018915195e-14\naF7.833134982448934e-14\naF1.1573498969485232e-13\naF1.7287607706054686e-13\naF2.533373134058668e-13\naF3.7256964690500503e-13\naF5.178638805981285e-13\naF6.95683968209e-13\naF9.721944077993873e-13\naF1.3077068390434678e-12\naF1.6464084572085932e-12\naF7.777868078940093e-13\naF6.464174339440487e-13\naF4.166996234362681e-13\naF2.7350202829954284e-13\naF1.6487960133269596e-13\naF1.1726660582790782e-13\naF7.847109625691603e-14\naF5.5954812820967016e-14\naF2.364948189761405e-14\naF9.260870877891514e-15\naF-1.6667367047604751e-16\naF-1.949206836347031e-15\naF-1.796503546038609e-15\naF2.2469971276224524e-14\naF3.786133721651035e-14\naF5.584902701043872e-14\naF7.82131807300772e-14\naF1.1556833733847838e-13\naF1.7265925612966468e-13\naF2.5309038635123314e-13\naF3.722887585699907e-13\naF5.175245294674262e-13\naF6.952167493141995e-13\naF9.716355524258693e-13\naF1.3072679264664082e-12\naF1.6463078986000326e-12\naa(lp77\nF8.423800713140234e-11\naF8.384106836895278e-11\naF0.0\naF0.0\naF0.0\naF0.0\naF0.0\naF0.0\naF0.0\naF0.0\naF0.0\naF0.0\naF0.0\naF0.0\naF0.0\naF0.0\naF0.0\naF0.0\naF0.0\naF0.0\naF0.0\naF0.0\naF0.0\naF0.0\naF0.0\naF0.0\naF0.0\naF0.0\naF0.0\naF0.0\naF0.0\naF0.0\naF0.0\naF0.0\naF0.0\naF0.0\naF0.0\naF0.0\naF1.1665441132576915e-12\naF1.0026809739112377e-12\naF6.458510665598238e-13\naF4.189973046734376e-13\naF2.2007598671658359e-13\naF1.541010820042387e-13\naF1.119076713454917e-13\naF8.286675820601365e-14\naF3.490038610418178e-14\naF1.241801861366663e-14\naF-6.591730428928878e-15\naF-7.86461821661632e-15\naF-5.2142500407437474e-15\naF2.3560854085113734e-14\naF4.2102578659225696e-14\naF6.301057450642728e-14\naF8.481659565700113e-14\naF1.2703349810526793e-13\naF2.0206672330565094e-13\naF3.3412588206958993e-13\naF4.940488033168401e-13\naF6.799923678207857e-13\naF8.771521715980645e-13\naF1.1997863348557716e-12\naF1.6464084572085932e-12\naF2.323139596385095e-12\naF1.167071390234526e-12\naF1.0028729724679774e-12\naF6.458666971634067e-13\naF4.188204507963437e-13\naF2.1991662260003636e-13\naF1.540100704637762e-13\naF1.118027996930629e-13\naF8.276809766269219e-14\naF3.478301829333264e-14\naF1.2282605019457444e-14\naF-6.699411853698296e-15\naF-7.937163973537823e-15\naF-5.277494239965506e-15\naF2.3528767255066205e-14\naF4.203787483159438e-14\naF6.289653291914389e-14\naF8.463382121329393e-14\naF1.2678094009200206e-13\naF2.0174439739374208e-13\naF3.3376697669251005e-13\naF4.936364290499891e-13\naF6.794934150832374e-13\naF8.764696442746219e-13\naF1.1989528098415222e-12\naF1.6457908318503527e-12\naF2.323156272613521e-12\naa(lp78\nF6.181709712448481e-11\naF6.169234067880858e-11\naF0.0\naF0.0\naF0.0\naF0.0\naF0.0\naF0.0\naF0.0\naF0.0\naF0.0\naF0.0\naF0.0\naF0.0\naF0.0\naF0.0\naF0.0\naF0.0\naF0.0\naF0.0\naF0.0\naF0.0\naF0.0\naF0.0\naF0.0\naF0.0\naF0.0\naF0.0\naF0.0\naF0.0\naF0.0\naF0.0\naF0.0\naF0.0\naF0.0\naF0.0\naF0.0\naF0.0\naF2.3968180005622622e-12\naF1.671154804994304e-12\naF1.1603373541684747e-12\naF7.50924818773922e-13\naF5.596737617208994e-13\naF4.1580955998969993e-13\naF3.466739176072809e-13\naF2.2669210266163057e-13\naF1.4264109345996186e-13\naF8.16909642173102e-14\naF5.801202092664782e-14\naF4.1862042371602884e-14\naF3.7227557457139386e-14\naF-1.234602942262618e-14\naF-7.777584626113401e-15\naF-8.142725032560375e-15\naF4.52068226575622e-15\naF1.307953555423416e-14\naF5.174351274896349e-14\naF1.0572352420722605e-13\naF1.8860906523614472e-13\naF2.4415033828588037e-13\naF3.7829043515530414e-13\naF4.857134030419451e-13\naF7.777868078940093e-13\naF1.167071390234526e-12\naF2.3967133448211556e-12\naF1.6707184448341495e-12\naF1.1599304846993058e-12\naF7.504410548864735e-13\naF5.593013579360827e-13\naF4.1552589358830093e-13\naF3.464187050688507e-13\naF2.2643835194211176e-13\naF1.4243038164128654e-13\naF8.149453859746023e-14\naF5.78402481164622e-14\naF4.170385737055598e-14\naF3.709335720715987e-14\naF-1.2353116096702807e-14\naF-7.80074518334139e-15\naF-8.193761446899825e-15\naF4.423868294607701e-15\naF1.2926918451222424e-14\naF5.1572692254199234e-14\naF1.0550010955573927e-13\naF1.8839351754369749e-13\naF2.4394554026927633e-13\naF3.7808358158331404e-13\naF4.852350785450921e-13\naF7.776341103000709e-13\naF1.167254329019665e-12\naa(lp79\nF4.678741732358877e-11\naF4.670571783376295e-11\naF0.0\naF0.0\naF0.0\naF0.0\naF0.0\naF0.0\naF0.0\naF0.0\naF0.0\naF0.0\naF0.0\naF0.0\naF0.0\naF0.0\naF0.0\naF0.0\naF0.0\naF0.0\naF0.0\naF0.0\naF0.0\naF0.0\naF0.0\naF0.0\naF0.0\naF0.0\naF0.0\naF0.0\naF0.0\naF0.0\naF0.0\naF0.0\naF0.0\naF0.0\naF0.0\naF0.0\naF1.6711995182544699e-12\naF1.3527642968122342e-12\naF9.88549783573177e-13\naF6.707412233857699e-13\naF4.864802431089179e-13\naF3.552014564867361e-13\naF2.9369001800856995e-13\naF2.1768830228524576e-13\naF1.463017079879328e-13\naF9.233726057232052e-14\naF6.295628645374233e-14\naF4.399352893940437e-14\naF3.6869716743722296e-14\naF7.372719544744196e-16\naF9.120065478891733e-15\naF1.4210417844951682e-14\naF2.3686594040049697e-14\naF3.4855172745614844e-14\naF6.473237519877474e-14\naF1.2428529342534812e-13\naF2.0789297603303063e-13\naF2.7420391014260414e-13\naF3.6356308362152634e-13\naF4.621303346710982e-13\naF6.464174339440487e-13\naF1.0028729724679774e-12\naF1.6707184448341495e-12\naF1.3522472734065348e-12\naF9.881168766829188e-13\naF6.702694888824136e-13\naF4.861094485851351e-13\naF3.5491469622343107e-13\naF2.934377330179796e-13\naF2.1744230492228868e-13\naF1.4608794078816946e-13\naF9.213743982445394e-14\naF6.278553723401227e-14\naF4.3842983088322323e-14\naF3.6745385194057604e-14\naF7.150431268793218e-16\naF9.080223349571514e-15\naF1.4141451984542216e-14\naF2.3582940654111683e-14\naF3.4697328835830063e-14\naF6.455396097730228e-14\naF1.2406101949598922e-13\naF2.0768385786086627e-13\naF2.739500350463812e-13\naF3.632374451390888e-13\naF4.615204842205954e-13\naF6.459657656499545e-13\naF1.002632180424263e-12\naa(lp80\nF2.720291992532199e-11\naF2.7135476128322656e-11\naF0.0\naF0.0\naF0.0\naF0.0\naF0.0\naF0.0\naF0.0\naF0.0\naF0.0\naF0.0\naF0.0\naF0.0\naF0.0\naF0.0\naF0.0\naF0.0\naF0.0\naF0.0\naF0.0\naF0.0\naF0.0\naF0.0\naF0.0\naF0.0\naF0.0\naF0.0\naF0.0\naF0.0\naF0.0\naF0.0\naF0.0\naF0.0\naF0.0\naF0.0\naF0.0\naF0.0\naF1.160335509389368e-12\naF9.884617440583397e-13\naF8.095934660076977e-13\naF5.651268005195637e-13\naF4.155571300588358e-13\naF2.931720746585149e-13\naF2.394629343896729e-13\naF1.828166640452529e-13\naF1.3612281801791526e-13\naF9.0464109356769e-14\naF6.264077909505343e-14\naF4.24938393485268e-14\naF3.4936080996133066e-14\naF5.197100901619805e-15\naF1.4118055843574635e-14\naF2.1779035170003968e-14\naF3.1024577544309714e-14\naF3.6523883821676894e-14\naF5.5562178780445095e-14\naF9.473502188739796e-14\naF1.6210318414126395e-13\naF2.1909451808250744e-13\naF2.7998506964427906e-13\naF3.1542232326804557e-13\naF4.166996234362681e-13\naF6.458666971634067e-13\naF1.1599304846993058e-12\naF9.881168766829188e-13\naF8.093320104548063e-13\naF5.64802599589105e-13\naF4.1527234429791855e-13\naF2.929291828396198e-13\naF2.3924814003636553e-13\naF1.8260605349794674e-13\naF1.3593968692235876e-13\naF9.029622618561503e-14\naF6.249809708436093e-14\naF4.237173755349477e-14\naF3.483744550001256e-14\naF5.189271693087077e-15\naF1.4101566582454353e-14\naF2.1740377935907205e-14\naF3.0965369682754153e-14\naF3.641963909739038e-14\naF5.543661523208702e-14\naF9.458417799875598e-14\naF1.6198281428891582e-13\naF2.1894104945687262e-13\naF2.797712358611269e-13\naF3.149621277677625e-13\naF4.1628957774062556e-13\naF6.455485263811375e-13\naa(lp81\nF1.5544301752905823e-11\naF1.5515347706083475e-11\naF0.0\naF0.0\naF0.0\naF0.0\naF0.0\naF0.0\naF0.0\naF0.0\naF0.0\naF0.0\naF0.0\naF0.0\naF0.0\naF0.0\naF0.0\naF0.0\naF0.0\naF0.0\naF0.0\naF0.0\naF0.0\naF0.0\naF0.0\naF0.0\naF0.0\naF0.0\naF0.0\naF0.0\naF0.0\naF0.0\naF0.0\naF0.0\naF0.0\naF0.0\naF0.0\naF0.0\naF7.5087588481934e-13\naF6.705978348765191e-13\naF5.650306683683319e-13\naF4.273571011574039e-13\naF3.2119472984624575e-13\naF2.2467925148227578e-13\naF1.7535513594180682e-13\naF1.3664819529693212e-13\naF1.0385580230071791e-13\naF7.452423240212389e-14\naF5.3082579522426185e-14\naF3.590768988676849e-14\naF2.8000739365750708e-14\naF5.974987875126301e-15\naF1.2370538439412357e-14\naF1.9233333822828382e-14\naF2.7077769952533394e-14\naF3.256964850335172e-14\naF4.189552798485132e-14\naF6.815730542616801e-14\naF1.1405112888099325e-13\naF1.5899879352854906e-13\naF2.0269697934650162e-13\naF2.3362273378851353e-13\naF2.7350202829954284e-13\naF4.188204507963437e-13\naF7.504410548864735e-13\naF6.702694888824136e-13\naF5.64802599589105e-13\naF4.2711689186219504e-13\naF3.2098564980261624e-13\naF2.2451249817116763e-13\naF1.7519757961018304e-13\naF1.3648975631382187e-13\naF1.0371506172220081e-13\naF7.439739004824368e-14\naF5.297514322968104e-14\naF3.5818226064504156e-14\naF2.7929078446240426e-14\naF5.964836948093839e-15\naF1.2356008662540381e-14\naF1.9203227151733116e-14\naF2.703474286501058e-14\naF3.249761398883488e-14\naF4.181290409160382e-14\naF6.805533974039857e-14\naF1.1397229681404196e-13\naF1.5889665922641455e-13\naF2.0254366206040435e-13\naF2.3329721577018396e-13\naF2.731580152625347e-13\naF4.1845330290714907e-13\naa(lp82\nF5.128395335152913e-12\naF5.1175490864905125e-12\naF0.0\naF0.0\naF0.0\naF0.0\naF0.0\naF0.0\naF0.0\naF0.0\naF0.0\naF0.0\naF0.0\naF0.0\naF0.0\naF0.0\naF0.0\naF0.0\naF0.0\naF0.0\naF0.0\naF0.0\naF0.0\naF0.0\naF0.0\naF0.0\naF0.0\naF0.0\naF0.0\naF0.0\naF0.0\naF0.0\naF0.0\naF0.0\naF0.0\naF0.0\naF0.0\naF0.0\naF5.595895083042306e-13\naF4.863101122960048e-13\naF4.1537009094208884e-13\naF3.2109456042116325e-13\naF2.6602524961991683e-13\naF1.8760516280975708e-13\naF1.4693486782717811e-13\naF1.1222929395570192e-13\naF8.563974016243786e-14\naF6.215392791968399e-14\naF4.8013495662786207e-14\naF3.288996316839291e-14\naF2.553733343077662e-14\naF5.628302759883768e-15\naF1.027738212271264e-14\naF1.4456722923986994e-14\naF2.0989957354024564e-14\naF2.627860665484948e-14\naF3.025922314338727e-14\naF4.1282684455373856e-14\naF7.063315633276229e-14\naF9.276280401963428e-14\naF1.2634025973795404e-13\naF1.5004949930013057e-13\naF1.6487960133269596e-13\naF2.1991662260003636e-13\naF5.593013579360827e-13\naF4.861094485851351e-13\naF4.1527234429791855e-13\naF3.2098564980261624e-13\naF2.6593275351207653e-13\naF1.8752618371420495e-13\naF1.4685259154149285e-13\naF1.1213401034621286e-13\naF8.555056334993916e-14\naF6.20710931627536e-14\naF4.7941500485836255e-14\naF3.282836505131754e-14\naF2.548857007183815e-14\naF5.615777999544559e-15\naF1.0263382232979064e-14\naF1.4433544052697326e-14\naF2.0958621678717216e-14\naF2.62276424205506e-14\naF3.020489461860699e-14\naF4.121426523413325e-14\naF7.058472272488748e-14\naF9.270121936047046e-14\naF1.2625013183461146e-13\naF1.4985093639671979e-13\naF1.6465783552145616e-13\naF2.196161783243833e-13\naa(lp83\nF-4.530995472006977e-13\naF-4.811975973054542e-13\naF0.0\naF0.0\naF0.0\naF0.0\naF0.0\naF0.0\naF0.0\naF0.0\naF0.0\naF0.0\naF0.0\naF0.0\naF0.0\naF0.0\naF0.0\naF0.0\naF0.0\naF0.0\naF0.0\naF0.0\naF0.0\naF0.0\naF0.0\naF0.0\naF0.0\naF0.0\naF0.0\naF0.0\naF0.0\naF0.0\naF0.0\naF0.0\naF0.0\naF0.0\naF0.0\naF0.0\naF4.157602945655755e-13\naF3.550910544948804e-13\naF2.9301583248509926e-13\naF2.2460651183941694e-13\naF1.8760017960739713e-13\naF1.4476635998002902e-13\naF1.1476998812777161e-13\naF8.765262378908648e-14\naF6.562951048059554e-14\naF4.757267063702243e-14\naF3.685733150145523e-14\naF2.715535965675493e-14\naF2.0985838551629528e-14\naF5.0519110059615965e-15\naF7.527684170967761e-15\naF1.0442552188462949e-14\naF1.3843356754894637e-14\naF1.7890304326240643e-14\naF2.152340534944145e-14\naF2.9780910028562306e-14\naF4.495456610627694e-14\naF6.040004166506619e-14\naF7.78186516940276e-14\naF9.877777333930364e-14\naF1.1726660582790782e-13\naF1.540100704637762e-13\naF4.1552589358830093e-13\naF3.5491469622343107e-13\naF2.929291828396198e-13\naF2.2451249817116763e-13\naF1.8752618371420495e-13\naF1.4470803063737784e-13\naF1.1470723775979479e-13\naF8.758372878940718e-14\naF6.556437157457363e-14\naF4.75088317887084e-14\naF3.680179372963376e-14\naF2.7107401268677677e-14\naF2.094685526516852e-14\naF5.042949944190612e-15\naF7.517981408490948e-15\naF1.0425501423879567e-14\naF1.3819540309256859e-14\naF1.7851940082383428e-14\naF2.1486273831113792e-14\naF2.9731745883592105e-14\naF4.491757233952883e-14\naF6.035870450401637e-14\naF7.775934393553163e-14\naF9.86375405031278e-14\naF1.1713012595627322e-13\naF1.5382216781420612e-13\naa(lp84\nF-2.4558849733029258e-12\naF-2.464568188178543e-12\naF0.0\naF0.0\naF0.0\naF0.0\naF0.0\naF0.0\naF0.0\naF0.0\naF0.0\naF0.0\naF0.0\naF0.0\naF0.0\naF0.0\naF0.0\naF0.0\naF0.0\naF0.0\naF0.0\naF0.0\naF0.0\naF0.0\naF0.0\naF0.0\naF0.0\naF0.0\naF0.0\naF0.0\naF0.0\naF0.0\naF0.0\naF0.0\naF0.0\naF0.0\naF0.0\naF0.0\naF3.4655304384476435e-13\naF2.935415001472377e-13\naF2.392874473876982e-13\naF1.752565605223383e-13\naF1.4689615077075634e-13\naF1.147435156175148e-13\naF9.758387366475267e-14\naF7.445743360258839e-14\naF5.524146994298038e-14\naF3.8602056698381623e-14\naF2.9767468934956156e-14\naF2.2072310293071452e-14\naF1.792685078043337e-14\naF4.893773832909779e-15\naF7.080570263165772e-15\naF8.674801244458941e-15\naF1.1252487011586298e-14\naF1.3067087360202337e-14\naF1.7210092954154082e-14\naF2.5084952870732513e-14\naF3.8076853648000916e-14\naF4.478056155731767e-14\naF5.688161472333214e-14\naF6.131056160232506e-14\naF7.847109625691603e-14\naF1.118027996930629e-13\naF3.464187050688507e-13\naF2.934377330179796e-13\naF2.3924814003636553e-13\naF1.7519757961018304e-13\naF1.4685259154149285e-13\naF1.1470723775979479e-13\naF9.754410668576485e-14\naF7.441138988016771e-14\naF5.519802763686212e-14\naF3.855657682604278e-14\naF2.972786845364709e-14\naF2.2037345507210357e-14\naF1.7897917598974437e-14\naF4.883642034200822e-15\naF7.069989144346367e-15\naF8.658901257292248e-15\naF1.1230867333113165e-14\naF1.30335153300008e-14\naF1.717860537043351e-14\naF2.5042206899502882e-14\naF3.804271372240421e-14\naF4.4741420969734433e-14\naF5.682956301936584e-14\naF6.119255811909546e-14\naF7.837354869804006e-14\naF1.1168211036551981e-13\naa(lp85\nF-3.582547587468252e-12\naF-3.5838774157787186e-12\naF0.0\naF0.0\naF0.0\naF0.0\naF0.0\naF0.0\naF0.0\naF0.0\naF0.0\naF0.0\naF0.0\naF0.0\naF0.0\naF0.0\naF0.0\naF0.0\naF0.0\naF0.0\naF0.0\naF0.0\naF0.0\naF0.0\naF0.0\naF0.0\naF0.0\naF0.0\naF0.0\naF0.0\naF0.0\naF0.0\naF0.0\naF0.0\naF0.0\naF0.0\naF0.0\naF0.0\naF2.2657167964972265e-13\naF2.1752642796273092e-13\naF1.8264026865478676e-13\naF1.3653935410896433e-13\naF1.1217103230199383e-13\naF8.761768214938309e-14\naF7.444818904874666e-14\naF6.072736624942962e-14\naF4.603942401989766e-14\naF3.29470242352856e-14\naF2.4876407373179635e-14\naF1.8388558695079513e-14\naF1.4718736482715963e-14\naF5.687823091389285e-15\naF8.119020138747935e-15\naF1.0122755031778013e-14\naF1.2010133391368199e-14\naF1.3644031864795843e-14\naF1.647416176086681e-14\naF2.4349097424006416e-14\naF3.65776268794327e-14\naF4.4029574978655213e-14\naF4.954941507694853e-14\naF5.197333307817906e-14\naF5.5954812820967016e-14\naF8.276809766269219e-14\naF2.2643835194211176e-13\naF2.1744230492228868e-13\naF1.8260605349794674e-13\naF1.3648975631382187e-13\naF1.1213401034621286e-13\naF8.758372878940718e-14\naF7.441138988016771e-14\naF6.068421646874623e-14\naF4.59978120153593e-14\naF3.290402722794721e-14\naF2.4839621459599265e-14\naF1.835691749119948e-14\naF1.4692942982213763e-14\naF5.675171693637183e-15\naF8.104968572982574e-15\naF1.010343132701996e-14\naF1.1986376016572042e-14\naF1.3610324625050314e-14\naF1.6440644553840162e-14\naF2.4305107251439502e-14\naF3.654162344290162e-14\naF4.39856351283461e-14\naF4.949141167290836e-14\naF5.186082290149741e-14\naF5.584898427517635e-14\naF8.263897920226896e-14\naa(lp86\nF-4.624812261014184e-12\naF-4.626525442050933e-12\naF0.0\naF0.0\naF0.0\naF0.0\naF0.0\naF0.0\naF0.0\naF0.0\naF0.0\naF0.0\naF0.0\naF0.0\naF0.0\naF0.0\naF0.0\naF0.0\naF0.0\naF0.0\naF0.0\naF0.0\naF0.0\naF0.0\naF0.0\naF0.0\naF0.0\naF0.0\naF0.0\naF0.0\naF0.0\naF0.0\naF0.0\naF0.0\naF0.0\naF0.0\naF0.0\naF0.0\naF1.4252870391460277e-13\naF1.4613819833643045e-13\naF1.3595426942093575e-13\naF1.0374684337769993e-13\naF8.557884497711978e-14\naF6.55933888230042e-14\naF5.5229627497364324e-14\naF4.6035056706200487e-14\naF3.7064949061828716e-14\naF2.7227072939391998e-14\naF2.0601256031413164e-14\naF1.509514594143264e-14\naF1.2000635815931631e-14\naF5.086972974518334e-15\naF7.293400041317451e-15\naF9.340783392814262e-15\naF1.0971226680541827e-14\naF1.1554027124020677e-14\naF1.2947034523813117e-14\naF1.7640734047750203e-14\naF2.6988610103555082e-14\naF3.2717587944579616e-14\naF3.4442008567335675e-14\naF2.8332241075809083e-14\naF2.364948189761405e-14\naF3.478301829333264e-14\naF1.4243038164128654e-13\naF1.4608794078816946e-13\naF1.3593968692235876e-13\naF1.0371506172220081e-13\naF8.555056334993916e-14\naF6.556437157457363e-14\naF5.519802763686212e-14\naF4.59978120153593e-14\naF3.702867373392078e-14\naF2.7190553675260852e-14\naF2.0570201094642974e-14\naF1.5068927057976704e-14\naF1.197956955990764e-14\naF5.077805185103242e-15\naF7.283706704353512e-15\naF9.326983178584463e-15\naF1.0955476034733693e-14\naF1.153065693537551e-14\naF1.2923390499066742e-14\naF1.7610284815696596e-14\naF2.6967379172545065e-14\naF3.2691066349487275e-14\naF3.440700953405723e-14\naF2.825510420130886e-14\naF2.3569968835304684e-14\naF3.4676755440234974e-14\naa(lp87\nF-4.8328530974301705e-12\naF-4.8340333382031626e-12\naF0.0\naF0.0\naF0.0\naF0.0\naF0.0\naF0.0\naF0.0\naF0.0\naF0.0\naF0.0\naF0.0\naF0.0\naF0.0\naF0.0\naF0.0\naF0.0\naF0.0\naF0.0\naF0.0\naF0.0\naF0.0\naF0.0\naF0.0\naF0.0\naF0.0\naF0.0\naF0.0\naF0.0\naF0.0\naF0.0\naF0.0\naF0.0\naF0.0\naF0.0\naF0.0\naF0.0\naF8.158499829212953e-14\naF9.218547975205294e-14\naF9.031345566287397e-14\naF7.44216456680113e-14\naF6.20925701395029e-14\naF4.752975294621818e-14\naF3.85813539381597e-14\naF3.2934031890004427e-14\naF2.7220206842458785e-14\naF2.1254987472694816e-14\naF1.6329239529174095e-14\naF1.2022420700214345e-14\naF9.30067536365341e-15\naF4.241253829738718e-15\naF5.92963773289181e-15\naF7.702637152732661e-15\naF9.101988661052402e-15\naF9.583840299699777e-15\naF9.791380908801644e-15\naF1.2768988313320064e-14\naF1.9206077899650674e-14\naF2.4163981100604656e-14\naF2.500365286748497e-14\naF1.9692136212718012e-14\naF9.260870877891514e-15\naF1.2282605019457444e-14\naF8.149453859746023e-14\naF9.213743982445394e-14\naF9.029622618561503e-14\naF7.439739004824368e-14\naF6.20710931627536e-14\naF4.75088317887084e-14\naF3.855657682604278e-14\naF3.290402722794721e-14\naF2.7190553675260852e-14\naF2.122506296301876e-14\naF1.6303704558197455e-14\naF1.20012347675817e-14\naF9.283760730613632e-15\naF4.2336305175342465e-15\naF5.9218680355964456e-15\naF7.69196955444289e-15\naF9.090794567993942e-15\naF9.568183313077054e-15\naF9.776920308409992e-15\naF1.2749418076562905e-14\naF1.9193174026932804e-14\naF2.4147656259094614e-14\naF2.498304410279811e-14\naF1.9644546913270585e-14\naF9.203850338826237e-15\naF1.2194764859870221e-14\naa(lp88\nF-5.048708271044999e-12\naF-5.044302123837821e-12\naF0.0\naF0.0\naF0.0\naF0.0\naF0.0\naF0.0\naF0.0\naF0.0\naF0.0\naF0.0\naF0.0\naF0.0\naF0.0\naF0.0\naF0.0\naF0.0\naF0.0\naF0.0\naF0.0\naF0.0\naF0.0\naF0.0\naF0.0\naF0.0\naF0.0\naF0.0\naF0.0\naF0.0\naF0.0\naF0.0\naF0.0\naF0.0\naF0.0\naF0.0\naF0.0\naF0.0\naF5.789635197671912e-14\naF6.281429913340211e-14\naF6.249900129347265e-14\naF5.2981287105269815e-14\naF4.7946201833414396e-14\naF3.680954609834156e-14\naF2.974033959899258e-14\naF2.4858737552602417e-14\naF2.0590384573819948e-14\naF1.6325242723981848e-14\naF1.3266885907116252e-14\naF9.878669366524136e-15\naF7.653973848115113e-15\naF3.4011803304977185e-15\naF4.684029854004415e-15\naF5.863344641828748e-15\naF7.027274795547434e-15\naF7.592586305714779e-15\naF7.305013438511913e-15\naF8.195109887259492e-15\naF1.2295887916411573e-14\naF1.4009175294152668e-14\naF1.4540322210981044e-14\naF1.0362256496336089e-14\naF-1.6667367047604751e-16\naF-6.699411853698296e-15\naF5.78402481164622e-14\naF6.278553723401227e-14\naF6.249809708436093e-14\naF5.297514322968104e-14\naF4.7941500485836255e-14\naF3.680179372963376e-14\naF2.972786845364709e-14\naF2.4839621459599265e-14\naF2.0570201094642974e-14\naF1.6303704558197455e-14\naF1.3247941789747279e-14\naF9.862372157278219e-15\naF7.641011807372235e-15\naF3.3944450855152487e-15\naF4.677431730094314e-15\naF5.855073849835715e-15\naF7.0190518947820164e-15\naF7.581544768706554e-15\naF7.295984048709405e-15\naF8.182312370011867e-15\naF1.2289018582988269e-14\naF1.4001536008731777e-14\naF1.453326096878989e-14\naF1.0339406029051623e-14\naF-1.963624274333426e-16\naF-6.762257418676745e-15\naa(lp89\nF-5.114128597903273e-12\naF-5.1111242671443394e-12\naF0.0\naF0.0\naF0.0\naF0.0\naF0.0\naF0.0\naF0.0\naF0.0\naF0.0\naF0.0\naF0.0\naF0.0\naF0.0\naF0.0\naF0.0\naF0.0\naF0.0\naF0.0\naF0.0\naF0.0\naF0.0\naF0.0\naF0.0\naF0.0\naF0.0\naF0.0\naF0.0\naF0.0\naF0.0\naF0.0\naF0.0\naF0.0\naF0.0\naF0.0\naF0.0\naF0.0\naF4.174215857286416e-14\naF4.386499185596909e-14\naF4.2371338491259695e-14\naF3.582195332411527e-14\naF3.2830196559732816e-14\naF2.711133611559257e-14\naF2.204533241265466e-14\naF1.837006578040917e-14\naF1.5083348537898093e-14\naF1.2017507558815519e-14\naF9.876862245420455e-15\naF7.742306574643049e-15\naF6.035297234439472e-15\naF2.7344788861840605e-15\naF3.56333007609208e-15\naF4.419046587373805e-15\naF5.045292337004645e-15\naF5.419697129214036e-15\naF5.327170059918906e-15\naF5.971430344312396e-15\naF8.010515366996741e-15\naF9.08061740277221e-15\naF8.002363841004988e-15\naF4.912691187469312e-15\naF-1.949206836347031e-15\naF-7.937163973537823e-15\naF4.170385737055598e-14\naF4.3842983088322323e-14\naF4.237173755349477e-14\naF3.5818226064504156e-14\naF3.282836505131754e-14\naF2.7107401268677677e-14\naF2.2037345507210357e-14\naF1.835691749119948e-14\naF1.5068927057976704e-14\naF1.20012347675817e-14\naF9.862372157278219e-15\naF7.729444514519794e-15\naF6.024776079532927e-15\naF2.7294966838035194e-15\naF3.558520322146e-15\naF4.413272978416652e-15\naF5.0398435664629595e-15\naF5.4127637610571e-15\naF5.3227561654513346e-15\naF5.964302061827949e-15\naF8.008225125922177e-15\naF9.080023462021817e-15\naF8.004934461511769e-15\naF4.904875625913388e-15\naF-1.957376546726386e-15\naF-7.969547228838807e-15\naa(lp90\nF-4.7010725034610845e-12\naF-4.696350207521916e-12\naF0.0\naF0.0\naF0.0\naF0.0\naF0.0\naF0.0\naF0.0\naF0.0\naF0.0\naF0.0\naF0.0\naF0.0\naF0.0\naF0.0\naF0.0\naF0.0\naF0.0\naF0.0\naF0.0\naF0.0\naF0.0\naF0.0\naF0.0\naF0.0\naF0.0\naF0.0\naF0.0\naF0.0\naF0.0\naF0.0\naF0.0\naF0.0\naF0.0\naF0.0\naF0.0\naF0.0\naF3.710641434775316e-14\naF3.675128718790263e-14\naF3.4827635391583515e-14\naF2.792664857885639e-14\naF2.548557627587265e-14\naF2.0947143565995682e-14\naF1.790136809329482e-14\naF1.470108126825e-14\naF1.1988900278597849e-14\naF9.295271274237292e-15\naF7.651456591362966e-15\naF6.0344345015815664e-15\naF4.891347389735101e-15\naF2.348028341128707e-15\naF3.0832717397395187e-15\naF3.683765706592427e-15\naF4.2179241145044515e-15\naF4.33441037387392e-15\naF4.578885862072483e-15\naF5.429025782566338e-15\naF7.450870386067713e-15\naF7.609986654113573e-15\naF6.684858562342607e-15\naF2.5814234447061996e-15\naF-1.796503546038609e-15\naF-5.277494239965506e-15\naF3.709335720715987e-14\naF3.6745385194057604e-14\naF3.483744550001256e-14\naF2.7929078446240426e-14\naF2.548857007183815e-14\naF2.094685526516852e-14\naF1.7897917598974437e-14\naF1.4692942982213763e-14\naF1.197956955990764e-14\naF9.283760730613632e-15\naF7.641011807372235e-15\naF6.024776079532927e-15\naF4.883258439938355e-15\naF2.343519691871024e-15\naF3.078828785169479e-15\naF3.678752918952579e-15\naF4.213170624165106e-15\naF4.328415309458846e-15\naF4.574983395291665e-15\naF5.422779522845905e-15\naF7.448682099376651e-15\naF7.60961780101809e-15\naF6.688159871545867e-15\naF2.5760843799726445e-15\naF-1.7987842437767927e-15\naF-5.296068765139505e-15\naa(lp91\nF-5.666927836454228e-12\naF-5.6723916162206684e-12\naF0.0\naF0.0\naF0.0\naF0.0\naF0.0\naF0.0\naF0.0\naF0.0\naF0.0\naF0.0\naF0.0\naF0.0\naF0.0\naF0.0\naF0.0\naF0.0\naF0.0\naF0.0\naF0.0\naF0.0\naF0.0\naF0.0\naF0.0\naF0.0\naF0.0\naF0.0\naF0.0\naF0.0\naF0.0\naF0.0\naF0.0\naF0.0\naF0.0\naF0.0\naF0.0\naF0.0\naF-1.2380292452296995e-14\naF6.868310421663659e-16\naF5.150826649035998e-15\naF5.940068234719277e-15\naF5.59211063948108e-15\naF5.027959526052484e-15\naF4.873519321372904e-15\naF5.67061223364493e-15\naF5.077706351362943e-15\naF4.2377850667127116e-15\naF3.3983368788802073e-15\naF2.7328021426288263e-15\naF2.3463024532429814e-15\naF4.932226906322893e-15\naF6.458276112651441e-15\naF7.833019485587116e-15\naF9.104862988646456e-15\naF1.0583655168211415e-14\naF1.2984841803612042e-14\naF1.674486807658687e-14\naF2.178007930618452e-14\naF2.4027742717050196e-14\naF2.445376763732136e-14\naF2.3689852050980167e-14\naF2.2469971276224524e-14\naF2.3528767255066205e-14\naF-1.2353116096702807e-14\naF7.150431268793218e-16\naF5.189271693087077e-15\naF5.964836948093839e-15\naF5.615777999544559e-15\naF5.042949944190612e-15\naF4.883642034200822e-15\naF5.675171693637183e-15\naF5.077805185103242e-15\naF4.2336305175342465e-15\naF3.3944450855152487e-15\naF2.7294966838035194e-15\naF2.343519691871024e-15\naF4.921856087418931e-15\naF6.446198841804398e-15\naF7.819116718821208e-15\naF9.089297429489283e-15\naF1.0565352628976962e-14\naF1.2964618547683063e-14\naF1.672145283965104e-14\naF2.1757184593375035e-14\naF2.400508659686244e-14\naF2.443052237131571e-14\naF2.3664481231989523e-14\naF2.244962549853038e-14\naF2.3508763970409352e-14\naa(lp92\nF-5.855127314542226e-12\naF-5.8617099487649665e-12\naF0.0\naF0.0\naF0.0\naF0.0\naF0.0\naF0.0\naF0.0\naF0.0\naF0.0\naF0.0\naF0.0\naF0.0\naF0.0\naF0.0\naF0.0\naF0.0\naF0.0\naF0.0\naF0.0\naF0.0\naF0.0\naF0.0\naF0.0\naF0.0\naF0.0\naF0.0\naF0.0\naF0.0\naF0.0\naF0.0\naF0.0\naF0.0\naF0.0\naF0.0\naF0.0\naF0.0\naF-7.846334529551329e-15\naF9.034211694475638e-15\naF1.4047399761821081e-14\naF1.2322040056476455e-14\naF1.0232114365975385e-14\naF7.499650583955869e-15\naF7.05753172787146e-15\naF8.100399005769996e-15\naF7.285030848938764e-15\naF5.929005334046458e-15\naF4.6840319340965264e-15\naF3.564252454944441e-15\naF3.083522780095705e-15\naF6.460034652284857e-15\naF8.866374300072667e-15\naF1.0896604737929958e-14\naF1.2845978836381448e-14\naF1.4866191802557596e-14\naF1.8443767554254838e-14\naF2.41846122354825e-14\naF3.326994868839174e-14\naF3.7419961943827064e-14\naF3.958080662693679e-14\naF3.841834243105647e-14\naF3.786133721651035e-14\naF4.203787483159438e-14\naF-7.80074518334139e-15\naF9.080223349571514e-15\naF1.4101566582454353e-14\naF1.2356008662540381e-14\naF1.0263382232979064e-14\naF7.517981408490948e-15\naF7.069989144346367e-15\naF8.104968572982574e-15\naF7.283706704353512e-15\naF5.9218680355964456e-15\naF4.677431730094314e-15\naF3.558520322146e-15\naF3.078828785169479e-15\naF6.446198841804398e-15\naF8.84981844115258e-15\naF1.0877049657049728e-14\naF1.2823601960095958e-14\naF1.483910999873809e-14\naF1.841269853334368e-14\naF2.4149141367209318e-14\naF3.323555962844182e-14\naF3.738439053865506e-14\naF3.9543071511199225e-14\naF3.837587632287983e-14\naF3.78241795071207e-14\naF4.2007829213326866e-14\naa(lp93\nF-5.863652538372756e-12\naF-5.87470309846228e-12\naF0.0\naF0.0\naF0.0\naF0.0\naF0.0\naF0.0\naF0.0\naF0.0\naF0.0\naF0.0\naF0.0\naF0.0\naF0.0\naF0.0\naF0.0\naF0.0\naF0.0\naF0.0\naF0.0\naF0.0\naF0.0\naF0.0\naF0.0\naF0.0\naF0.0\naF0.0\naF0.0\naF0.0\naF0.0\naF0.0\naF0.0\naF0.0\naF0.0\naF0.0\naF0.0\naF0.0\naF-8.244319147355486e-15\naF1.4088325808723763e-14\naF2.1678002449232338e-14\naF1.9166223552221466e-14\naF1.440104142004587e-14\naF1.0407690206054977e-14\naF8.648074214282612e-15\naF1.0100894762401621e-14\naF9.331077900966157e-15\naF7.702549965952659e-15\naF5.864573204190059e-15\naF4.421212744579969e-15\naF3.6851467795640196e-15\naF7.834495862047354e-15\naF1.0895754033396804e-14\naF1.3923493354795228e-14\naF1.652952265055546e-14\naF1.9280041874833686e-14\naF2.3827352242194344e-14\naF3.1360822460304625e-14\naF4.33597723208458e-14\naF5.1812821816290235e-14\naF5.57285639552814e-14\naF5.6146712741562223e-14\naF5.584902701043872e-14\naF6.289653291914389e-14\naF-8.193761446899825e-15\naF1.4141451984542216e-14\naF2.1740377935907205e-14\naF1.9203227151733116e-14\naF1.4433544052697326e-14\naF1.0425501423879567e-14\naF8.658901257292248e-15\naF1.010343132701996e-14\naF9.326983178584463e-15\naF7.69196955444289e-15\naF5.855073849835715e-15\naF4.413272978416652e-15\naF3.678752918952579e-15\naF7.819116718821208e-15\naF1.0877049657049728e-14\naF1.3900766501291752e-14\naF1.6503266276502583e-14\naF1.924786364232785e-14\naF2.3789717063564275e-14\naF3.131891771515414e-14\naF4.332023415311211e-14\naF5.177257291326075e-14\naF5.56839600787955e-14\naF5.6094143133836055e-14\naF5.5799956984223824e-14\naF6.286043257392304e-14\naa(lp94\nF-5.346578306336423e-12\naF-5.357556442889565e-12\naF0.0\naF0.0\naF0.0\naF0.0\naF0.0\naF0.0\naF0.0\naF0.0\naF0.0\naF0.0\naF0.0\naF0.0\naF0.0\naF0.0\naF0.0\naF0.0\naF0.0\naF0.0\naF0.0\naF0.0\naF0.0\naF0.0\naF0.0\naF0.0\naF0.0\naF0.0\naF0.0\naF0.0\naF0.0\naF0.0\naF0.0\naF0.0\naF0.0\naF0.0\naF0.0\naF0.0\naF4.3408049462262485e-15\naF2.3503104759569585e-14\naF3.087436692901721e-14\naF2.6977693300378645e-14\naF2.0910155031157093e-14\naF1.3792038920301836e-14\naF1.1213565742126444e-14\naF1.198097335353202e-14\naF1.0958058883190146e-14\naF9.10175995573912e-15\naF7.029077049462542e-15\naF5.04832512760147e-15\naF4.219767493580878e-15\naF9.106333729000157e-15\naF1.2844244521852875e-14\naF1.652859715256726e-14\naF2.0424097332928118e-14\naF2.399036136147916e-14\naF2.982476023648114e-14\naF3.867845408186458e-14\naF5.414370250290325e-14\naF6.518171802695122e-14\naF7.457200007228154e-14\naF7.657843487789111e-14\naF7.82131807300772e-14\naF8.463382121329393e-14\naF4.423868294607701e-15\naF2.3582940654111683e-14\naF3.0965369682754153e-14\naF2.703474286501058e-14\naF2.0958621678717216e-14\naF1.3819540309256859e-14\naF1.1230867333113165e-14\naF1.1986376016572042e-14\naF1.0955476034733693e-14\naF9.090794567993942e-15\naF7.0190518947820164e-15\naF5.0398435664629595e-15\naF4.213170624165106e-15\naF9.089297429489283e-15\naF1.2823601960095958e-14\naF1.6503266276502583e-14\naF2.039412765969595e-14\naF2.395281030127276e-14\naF2.9780427138358465e-14\naF3.8628453301876466e-14\naF5.409642819940893e-14\naF6.513440932069713e-14\naF7.452146200415786e-14\naF7.65177640571901e-14\naF7.815716640579858e-14\naF8.458714525540102e-14\naa(lp95\nF-4.19431237930381e-12\naF-4.213310977741589e-12\naF0.0\naF0.0\naF0.0\naF0.0\naF0.0\naF0.0\naF0.0\naF0.0\naF0.0\naF0.0\naF0.0\naF0.0\naF0.0\naF0.0\naF0.0\naF0.0\naF0.0\naF0.0\naF0.0\naF0.0\naF0.0\naF0.0\naF0.0\naF0.0\naF0.0\naF0.0\naF0.0\naF0.0\naF0.0\naF0.0\naF0.0\naF0.0\naF0.0\naF0.0\naF0.0\naF0.0\naF1.2832388582835208e-14\naF3.46099526851419e-14\naF3.6316201918787324e-14\naF3.2429704408840685e-14\naF2.616624753292973e-14\naF1.7813256810824752e-14\naF1.3007227578973206e-14\naF1.3598474236838924e-14\naF1.1530503886023024e-14\naF9.5783821905973e-15\naF7.591195412014083e-15\naF5.4207631387980225e-15\naF4.33438605951439e-15\naF1.0584702701994026e-14\naF1.4863084253538058e-14\naF1.9277692122096066e-14\naF2.3989127119745583e-14\naF3.001696169612714e-14\naF3.749398181699259e-14\naF4.873683787515435e-14\naF6.695935938247644e-14\naF8.145134940591822e-14\naF9.469270472844307e-14\naF1.0870798698640401e-13\naF1.1556833733847838e-13\naF1.2678094009200206e-13\naF1.2926918451222424e-14\naF3.4697328835830063e-14\naF3.641963909739038e-14\naF3.249761398883488e-14\naF2.62276424205506e-14\naF1.7851940082383428e-14\naF1.30335153300008e-14\naF1.3610324625050314e-14\naF1.153065693537551e-14\naF9.568183313077054e-15\naF7.581544768706554e-15\naF5.4127637610571e-15\naF4.328415309458846e-15\naF1.0565352628976962e-14\naF1.483910999873809e-14\naF1.924786364232785e-14\naF2.395281030127276e-14\naF2.9970257501885496e-14\naF3.7438711621040095e-14\naF4.867554677397911e-14\naF6.68998923585107e-14\naF8.139081759465016e-14\naF9.46213771686338e-14\naF1.0862298130047436e-13\naF1.1548504235120852e-13\naF1.2670932518878107e-13\naa(lp96\nF-2.9670335857818774e-12\naF-3.0013252055496324e-12\naF0.0\naF0.0\naF0.0\naF0.0\naF0.0\naF0.0\naF0.0\naF0.0\naF0.0\naF0.0\naF0.0\naF0.0\naF0.0\naF0.0\naF0.0\naF0.0\naF0.0\naF0.0\naF0.0\naF0.0\naF0.0\naF0.0\naF0.0\naF0.0\naF0.0\naF0.0\naF0.0\naF0.0\naF0.0\naF0.0\naF0.0\naF0.0\naF0.0\naF0.0\naF0.0\naF0.0\naF5.143003982006013e-14\naF6.443216675944014e-14\naF5.530091448988726e-14\naF4.1724303666167424e-14\naF3.0125544478965255e-14\naF2.1433419840617422e-14\naF1.7140545493884807e-14\naF1.6419692577013385e-14\naF1.2918171729441199e-14\naF9.785721559258801e-15\naF7.30482871762586e-15\naF5.330410677711868e-15\naF4.580717260872056e-15\naF1.2987544330289692e-14\naF1.8441716523403675e-14\naF2.3826471779664995e-14\naF2.982664167217934e-14\naF3.749994086965415e-14\naF5.0165045020180184e-14\naF6.759174142530921e-14\naF9.31681484575672e-14\naF1.1242101613628535e-13\naF1.309329836390485e-13\naF1.4860397351948462e-13\naF1.7265925612966468e-13\naF2.0174439739374208e-13\naF5.1572692254199234e-14\naF6.455396097730228e-14\naF5.543661523208702e-14\naF4.181290409160382e-14\naF3.020489461860699e-14\naF2.1486273831113792e-14\naF1.717860537043351e-14\naF1.6440644553840162e-14\naF1.2923390499066742e-14\naF9.776920308409992e-15\naF7.295984048709405e-15\naF5.3227561654513346e-15\naF4.574983395291665e-15\naF1.2964618547683063e-14\naF1.841269853334368e-14\naF2.3789717063564275e-14\naF2.9780427138358465e-14\naF3.7438711621040095e-14\naF5.009039913404155e-14\naF6.750730299144326e-14\naF9.308205934375093e-14\naF1.1233101120198826e-13\naF1.308279383957903e-13\naF1.484776486043989e-13\naF1.72549322646936e-13\naF2.0167912476268899e-13\naa(lp97\nF-5.237134781590502e-13\naF-5.767952574470824e-13\naF0.0\naF0.0\naF0.0\naF0.0\naF0.0\naF0.0\naF0.0\naF0.0\naF0.0\naF0.0\naF0.0\naF0.0\naF0.0\naF0.0\naF0.0\naF0.0\naF0.0\naF0.0\naF0.0\naF0.0\naF0.0\naF0.0\naF0.0\naF0.0\naF0.0\naF0.0\naF0.0\naF0.0\naF0.0\naF0.0\naF0.0\naF0.0\naF0.0\naF0.0\naF0.0\naF0.0\naF1.0534725903203854e-13\naF1.239441926300597e-13\naF9.445640265461328e-14\naF6.797976012129444e-14\naF4.114127303783237e-14\naF2.9680806844188504e-14\naF2.50058681383788e-14\naF2.428742037828317e-14\naF1.761172027000473e-14\naF1.2767610112796932e-14\naF8.198962984128631e-15\naF5.977817010968787e-15\naF5.433871192598612e-15\naF1.6753286546890703e-14\naF2.419043875171796e-14\naF3.1371790449060423e-14\naF3.8695305856663274e-14\naF4.876463246341715e-14\naF6.761674378452575e-14\naF9.832695010406535e-14\naF1.3719818574639843e-13\naF1.6662827712480897e-13\naF1.9021156441769067e-13\naF2.1366516733112968e-13\naF2.5309038635123314e-13\naF3.3376697669251005e-13\naF1.0550010955573927e-13\naF1.2406101949598922e-13\naF9.458417799875598e-14\naF6.805533974039857e-14\naF4.121426523413325e-14\naF2.9731745883592105e-14\naF2.5042206899502882e-14\naF2.4305107251439502e-14\naF1.7610284815696596e-14\naF1.2749418076562905e-14\naF8.182312370011867e-15\naF5.964302061827949e-15\naF5.422779522845905e-15\naF1.672145283965104e-14\naF2.4149141367209318e-14\naF3.131891771515414e-14\naF3.8628453301876466e-14\naF4.867554677397911e-14\naF6.750730299144326e-14\naF9.820137302388882e-14\naF1.3706478409322816e-13\naF1.6648335959866096e-13\naF1.9004084459205732e-13\naF2.134539274316038e-13\naF2.5290545561598694e-13\naF3.3367389661941786e-13\naa(lp98\nF4.757545935391952e-12\naF4.694808245739641e-12\naF0.0\naF0.0\naF0.0\naF0.0\naF0.0\naF0.0\naF0.0\naF0.0\naF0.0\naF0.0\naF0.0\naF0.0\naF0.0\naF0.0\naF0.0\naF0.0\naF0.0\naF0.0\naF0.0\naF0.0\naF0.0\naF0.0\naF0.0\naF0.0\naF0.0\naF0.0\naF0.0\naF0.0\naF0.0\naF0.0\naF0.0\naF0.0\naF0.0\naF0.0\naF0.0\naF0.0\naF1.8816200420814116e-13\naF2.0750435274140126e-13\naF1.6181035326881608e-13\naF1.1387387885259218e-13\naF7.049217697222873e-14\naF4.485852974125906e-14\naF3.8001554052343805e-14\naF3.652864324449739e-14\naF2.6978150355569458e-14\naF1.9226339960740027e-14\naF1.231875119742095e-14\naF8.032692917105688e-15\naF7.468559760873672e-15\naF2.1800611342486423e-14\naF3.3292427636786964e-14\naF4.3394167814092804e-14\naF5.419093676022944e-14\naF6.702612615386906e-14\naF9.324044360214704e-14\naF1.37246470482702e-13\naF2.0149519348022497e-13\naF2.463128251452109e-13\naF2.866820885955955e-13\naF3.159094760816362e-13\naF3.722887585699907e-13\naF4.936364290499891e-13\naF1.8839351754369749e-13\naF2.0768385786086627e-13\naF1.6198281428891582e-13\naF1.1397229681404196e-13\naF7.058472272488748e-14\naF4.491757233952883e-14\naF3.804271372240421e-14\naF3.654162344290162e-14\naF2.6967379172545065e-14\naF1.9193174026932804e-14\naF1.2289018582988269e-14\naF8.008225125922177e-15\naF7.448682099376651e-15\naF2.1757184593375035e-14\naF3.323555962844182e-14\naF4.332023415311211e-14\naF5.409642819940893e-14\naF6.68998923585107e-14\naF9.308205934375093e-14\naF1.3706478409322816e-13\naF2.013019177084527e-13\naF2.4609410411443606e-13\naF2.864228181991426e-13\naF3.1558957433463607e-13\naF3.719938100624436e-13\naF4.934820719381706e-13\naa(lp99\nF1.1271210506576617e-11\naF1.1168854787356347e-11\naF0.0\naF0.0\naF0.0\naF0.0\naF0.0\naF0.0\naF0.0\naF0.0\naF0.0\naF0.0\naF0.0\naF0.0\naF0.0\naF0.0\naF0.0\naF0.0\naF0.0\naF0.0\naF0.0\naF0.0\naF0.0\naF0.0\naF0.0\naF0.0\naF0.0\naF0.0\naF0.0\naF0.0\naF0.0\naF0.0\naF0.0\naF0.0\naF0.0\naF0.0\naF0.0\naF0.0\naF2.437174299229843e-13\naF2.7378203425738605e-13\naF2.1878727148357465e-13\naF1.5883031471685232e-13\naF9.264592992447832e-14\naF6.033073296000152e-14\naF4.473010936265228e-14\naF4.399723831275222e-14\naF3.272296987541399e-14\naF2.4200684139552347e-14\naF1.4046817868297006e-14\naF9.11477920558197e-15\naF7.637342535049237e-15\naF2.4042462835193978e-14\naF3.743599004587065e-14\naF5.184414673948235e-14\naF6.522875382999747e-14\naF8.15186024989096e-14\naF1.1249623883924617e-13\naF1.6666943762884715e-13\naF2.462920112635945e-13\naF3.23620044944007e-13\naF3.8420713378418185e-13\naF4.406951478668909e-13\naF5.175245294674262e-13\naF6.794934150832374e-13\naF2.4394554026927633e-13\naF2.739500350463812e-13\naF2.1894104945687262e-13\naF1.5889665922641455e-13\naF9.270121936047046e-14\naF6.035870450401637e-14\naF4.4741420969734433e-14\naF4.39856351283461e-14\naF3.2691066349487275e-14\naF2.4147656259094614e-14\naF1.4001536008731777e-14\naF9.080023462021817e-15\naF7.60961780101809e-15\naF2.400508659686244e-14\naF3.738439053865506e-14\naF5.177257291326075e-14\naF6.513440932069713e-14\naF8.139081759465016e-14\naF1.1233101120198826e-13\naF1.6648335959866096e-13\naF2.4609410411443606e-13\naF3.2339212584685843e-13\naF3.839224207425142e-13\naF4.4032950576016354e-13\naF5.171652868240515e-13\naF6.793128141120705e-13\naa(lp100\nF2.337338353194014e-11\naF2.325661059594366e-11\naF0.0\naF0.0\naF0.0\naF0.0\naF0.0\naF0.0\naF0.0\naF0.0\naF0.0\naF0.0\naF0.0\naF0.0\naF0.0\naF0.0\naF0.0\naF0.0\naF0.0\naF0.0\naF0.0\naF0.0\naF0.0\naF0.0\naF0.0\naF0.0\naF0.0\naF0.0\naF0.0\naF0.0\naF0.0\naF0.0\naF0.0\naF0.0\naF0.0\naF0.0\naF0.0\naF0.0\naF3.7768291966628966e-13\naF3.62961764601266e-13\naF2.795228896260153e-13\naF2.024218314583e-13\naF1.2615745757497738e-13\naF7.771172309314004e-14\naF5.6808273289142754e-14\naF4.950350389680944e-14\naF3.4438083814066255e-14\naF2.5039506728196798e-14\naF1.4580840036107867e-14\naF8.040742808467294e-15\naF6.715812378551954e-15\naF2.446057524036024e-14\naF3.958683973953323e-14\naF5.57486100528847e-14\naF7.461354749537418e-14\naF9.474783244815819e-14\naF1.3099445580163338e-13\naF1.902300415238431e-13\naF2.866276789797087e-13\naF3.841594959276382e-13\naF4.895835326893727e-13\naF5.807269289321657e-13\naF6.952167493141995e-13\naF8.764696442746219e-13\naF3.7808358158331404e-13\naF3.632374451390888e-13\naF2.797712358611269e-13\naF2.0254366206040435e-13\naF1.2625013183461146e-13\naF7.775934393553163e-14\naF5.682956301936584e-14\naF4.949141167290836e-14\naF3.440700953405723e-14\naF2.498304410279811e-14\naF1.453326096878989e-14\naF8.004934461511769e-15\naF6.688159871545867e-15\naF2.443052237131571e-14\naF3.9543071511199225e-14\naF5.56839600787955e-14\naF7.452146200415786e-14\naF9.46213771686338e-14\naF1.308279383957903e-13\naF1.9004084459205732e-13\naF2.864228181991426e-13\naF3.839224207425142e-13\naF4.892877324752791e-13\naF5.803472634811954e-13\naF6.948483477100003e-13\naF8.762848276933568e-13\naa(lp101\nF3.7989729630581586e-11\naF3.778027166937529e-11\naF0.0\naF0.0\naF0.0\naF0.0\naF0.0\naF0.0\naF0.0\naF0.0\naF0.0\naF0.0\naF0.0\naF0.0\naF0.0\naF0.0\naF0.0\naF0.0\naF0.0\naF0.0\naF0.0\naF0.0\naF0.0\naF0.0\naF0.0\naF0.0\naF0.0\naF0.0\naF0.0\naF0.0\naF0.0\naF0.0\naF0.0\naF0.0\naF0.0\naF0.0\naF0.0\naF0.0\naF4.84814650677342e-13\naF4.612703638382628e-13\naF3.1474371068500423e-13\naF2.3320548475461324e-13\naF1.4976812081760724e-13\naF9.85856884173261e-14\naF6.117131336109916e-14\naF5.1872106388290455e-14\naF2.828972969077285e-14\naF1.9704544896841584e-14\naF1.038904284671218e-14\naF4.940380486898955e-15\naF2.6032744891971287e-15\naF2.3685375230217485e-14\naF3.841431129624111e-14\naF5.6157292097871914e-14\naF7.661673094135875e-14\naF1.0875659954016746e-13\naF1.4865125714450026e-13\naF2.1364692044703996e-13\naF3.1580437309396895e-13\naF4.405890713087685e-13\naF5.807172894079668e-13\naF7.889294876216802e-13\naF9.716355524258693e-13\naF1.1989528098415222e-12\naF4.852350785450921e-13\naF4.615204842205954e-13\naF3.149621277677625e-13\naF2.3329721577018396e-13\naF1.4985093639671979e-13\naF9.86375405031278e-14\naF6.119255811909546e-14\naF5.186082290149741e-14\naF2.825510420130886e-14\naF1.9644546913270585e-14\naF1.0339406029051623e-14\naF4.904875625913388e-15\naF2.5760843799726445e-15\naF2.3664481231989523e-14\naF3.837587632287983e-14\naF5.6094143133836055e-14\naF7.65177640571901e-14\naF1.0862298130047436e-13\naF1.484776486043989e-13\naF2.134539274316038e-13\naF3.1558957433463607e-13\naF4.4032950576016354e-13\naF5.803472634811954e-13\naF7.884770560721911e-13\naF9.711865178656642e-13\naF1.1986983773334212e-12\naa(lp102\nF5.6520078830818264e-11\naF5.621089064903267e-11\naF0.0\naF0.0\naF0.0\naF0.0\naF0.0\naF0.0\naF0.0\naF0.0\naF0.0\naF0.0\naF0.0\naF0.0\naF0.0\naF0.0\naF0.0\naF0.0\naF0.0\naF0.0\naF0.0\naF0.0\naF0.0\naF0.0\naF0.0\naF0.0\naF0.0\naF0.0\naF0.0\naF0.0\naF0.0\naF0.0\naF0.0\naF0.0\naF0.0\naF0.0\naF0.0\naF0.0\naF7.76979542702855e-13\naF6.455811481164845e-13\naF4.1600365573443417e-13\naF2.7306959100377095e-13\naF1.645941244600116e-13\naF1.170845058259635e-13\naF7.83631396875177e-14\naF5.5864204586335347e-14\naF2.3612015500494925e-14\naF9.274410883840871e-15\naF-1.3912316328723894e-16\naF-1.916982396584259e-15\naF-1.7655682753327083e-15\naF2.246200756102705e-14\naF3.785717083875907e-14\naF5.586701767572222e-14\naF7.82748649969555e-14\naF1.1565097544292891e-13\naF1.7276517163544922e-13\naF2.5315112324270137e-13\naF3.72273053937258e-13\naF5.175024679205125e-13\naF6.953126524467252e-13\naF9.717415387358003e-13\naF1.3072679264664082e-12\naF1.6457908318503527e-12\naF7.776341103000709e-13\naF6.459657656499545e-13\naF4.1628957774062556e-13\naF2.731580152625347e-13\naF1.6465783552145616e-13\naF1.1713012595627322e-13\naF7.837354869804006e-14\naF5.584898427517635e-14\naF2.3569968835304684e-14\naF9.203850338826237e-15\naF-1.963624274333426e-16\naF-1.957376546726386e-15\naF-1.7987842437767927e-15\naF2.244962549853038e-14\naF3.78241795071207e-14\naF5.5799956984223824e-14\naF7.815716640579858e-14\naF1.1548504235120852e-13\naF1.72549322646936e-13\naF2.5290545561598694e-13\naF3.719938100624436e-13\naF5.171652868240515e-13\naF6.948483477100003e-13\naF9.711865178656642e-13\naF1.3068338081911808e-12\naF1.6456952407720981e-12\naa(lp103\nF8.421468821341552e-11\naF8.381754273909906e-11\naF0.0\naF0.0\naF0.0\naF0.0\naF0.0\naF0.0\naF0.0\naF0.0\naF0.0\naF0.0\naF0.0\naF0.0\naF0.0\naF0.0\naF0.0\naF0.0\naF0.0\naF0.0\naF0.0\naF0.0\naF0.0\naF0.0\naF0.0\naF0.0\naF0.0\naF0.0\naF0.0\naF0.0\naF0.0\naF0.0\naF0.0\naF0.0\naF0.0\naF0.0\naF0.0\naF0.0\naF1.1667250285609964e-12\naF1.002438269931854e-12\naF6.455314337727036e-13\naF4.1862907420098985e-13\naF2.1977479248497657e-13\naF1.5391254185614298e-13\naF1.1178661265601677e-13\naF8.273731895834574e-14\naF3.479383864147715e-14\naF1.2329993916030478e-14\naF-6.654689312498993e-15\naF-7.897064966573243e-15\naF-5.232847109033613e-15\naF2.3540706767651634e-14\naF4.207237225993888e-14\naF6.297419743649183e-14\naF8.476955474422139e-14\naF1.2696126067455695e-13\naF2.0200063036580803e-13\naF3.3403159089362963e-13\naF4.938929329083707e-13\naF6.798096667543152e-13\naF8.76964765351508e-13\naF1.1995281353476671e-12\naF1.6463078986000326e-12\naF2.323156272613521e-12\naF1.167254329019665e-12\naF1.002632180424263e-12\naF6.455485263811375e-13\naF4.1845330290714907e-13\naF2.196161783243833e-13\naF1.5382216781420612e-13\naF1.1168211036551981e-13\naF8.263897920226896e-14\naF3.4676755440234974e-14\naF1.2194764859870221e-14\naF-6.762257418676745e-15\naF-7.969547228838807e-15\naF-5.296068765139505e-15\naF2.3508763970409352e-14\naF4.2007829213326866e-14\naF6.286043257392304e-14\naF8.458714525540102e-14\naF1.2670932518878107e-13\naF2.0167912476268899e-13\naF3.3367389661941786e-13\naF4.934820719381706e-13\naF6.793128141120705e-13\naF8.762848276933568e-13\naF1.1986983773334212e-12\naF1.6456952407720981e-12\naF2.3231798788115567e-12\naaa(lp104\nI00\naI00\naI01\naI01\naI01\naI01\naI01\naI01\naI01\naI01\naI01\naI01\naI01\naI01\naI01\naI01\naI01\naI01\naI01\naI01\naI01\naI01\naI01\naI01\naI01\naI01\naI01\naI01\naI01\naI01\naI01\naI01\naI01\naI01\naI01\naI01\naI01\naI01\naI01\naI01\naI01\naI01\naI01\naI01\naI01\naI01\naI01\naI01\naI01\naI01\naI01\naI01\naI01\naI01\naI01\naI01\naI01\naI01\naI01\naI01\naI01\naI01\naI01\naI01\naI01\naI01\naI01\naI01\naI01\naI01\naI01\naI01\naI01\naI01\naI01\naI01\naI01\naI01\naI01\naI01\naI01\naI01\naI01\naI01\naI01\naI01\naI01\naI01\naI01\naI01\naa(lp105\n(lp106\nF0.00016289546063478515\naF3.0839249914963996e-08\naF5.6473778888324733e-08\naF-1.609856344093895e-06\naF-1.7373579162936529e-06\naF-2.3553856215053406e-07\naF-2.7036343432507596e-07\naF-1.7519676538993238e-07\naF-1.0645900380749762e-07\naF9.948654279249349e-08\naF4.438044509108391e-06\naF8.67032668840698e-06\naF2.419936913518596e-06\naF2.3911264762827313e-06\naF1.501041770252151e-09\naF4.595763124451456e-09\naF3.120518621257216e-09\naF1.3204408492341068e-09\naF1.4820496303030667e-06\naF3.155604094952581e-08\naF8.166486511889539e-08\naF-1.3581377141570935e-06\naF-1.308146751204133e-06\naF-9.57100774635e-07\naF-1.1167091028500491e-05\naF-1.8479558361092743e-06\naF2.95066702672735e-08\naF9.945021329750009e-08\naF4.503036843880127e-06\naF1.0681824558033783e-05\naF-1.5260174469709834e-05\naF1.6198505769199631e-06\naF1.612729705528012e-06\naF1.597397029381088e-06\naF1.3271870168805883e-06\naF-1.7442732539276602e-10\naF3.8900066210358273\naF-170.91879720160895\naF2833.694155475758\naF-25188.627772626485\naF102570.26042191431\naF-226346.1298589927\naF191539.23161021134\naF-95718.59187007973\naF4384.2475342170665\naF346225.6007576771\naF-663449.3655628719\naF271209.5266362276\naF80793.41503200446\naF79447.82864213224\naF213651.30712720758\naF-609180.3780991046\naF371589.094226657\naF6051.133884286388\naF-125552.14023599323\naF189375.87305576788\naF-144257.8189572518\naF76952.2193208731\naF-19728.26247599501\naF2956.043532429294\naF-182.69267171734205\naF4.138190391756359\naF-1.910260699457033\naF151.37944981925628\naF-2797.2601269661372\naF25355.118787367734\naF-102933.39590346468\naF225805.89797797345\naF-190308.9395979632\naF94975.98531918749\naF-3512.692168457852\naF-346876.5117909462\naF664271.0382492635\naF-266820.4693224438\naF-88091.50830757755\naF-86772.7800805086\naF-210324.18236273012\naF610372.316570659\naF-372376.2415788054\naF-4857.300655531974\naF124876.89402438991\naF-188599.19266578607\naF144089.06462102337\naF-77295.2447904312\naF19857.711128424642\naF-2920.459478997297\naF161.7819279785136\naF-2.031780714511882\naa(lp107\nF0.00016289555224217956\naF3.0937112251641746e-08\naF5.683158336774785e-08\naF-1.5875067816629928e-06\naF-1.749676075568139e-06\naF-2.2409750988403579e-07\naF-2.6238595293835045e-07\naF-1.707489497949746e-07\naF-1.0393883122670401e-07\naF9.948190882899288e-08\naF4.44870335755159e-06\naF8.723828736575295e-06\naF2.4453237913079894e-06\naF2.4170860832835703e-06\naF1.380148431903379e-09\naF4.4513081254034266e-09\naF3.0380005476081632e-09\naF1.287933166618254e-09\naF1.482144151393357e-06\naF3.1664037738887e-08\naF8.230614479580695e-08\naF-1.3695258063736504e-06\naF-1.2825245277983658e-06\naF-9.401182718665658e-07\naF-1.0982356555783877e-05\naF-1.8773609162437446e-06\naF2.9016984864030836e-08\naF9.945029371863101e-08\naF4.514718547642501e-06\naF1.075798652196609e-05\naF-1.4897483174352509e-05\naF1.5938938505892806e-06\naF1.586944007336535e-06\naF1.571896519010567e-06\naF1.3062854357745027e-06\naF-1.7132051582360572e-10\naF3.8057629308950434\naF-167.86903033234043\naF2793.0065699227257\naF-24918.64953065839\naF101919.22647110849\naF-226144.1991086056\naF192302.99493789533\naF-95454.03328394784\naF4308.394212207895\naF344689.24925784074\naF-664278.2018552385\naF262105.98050732363\naF93738.2992457164\naF92177.12028546524\naF206479.78718077898\naF-609941.417045216\naF369940.1940269358\naF5946.441208185617\naF-125205.12409150427\naF190131.00998396898\naF-144129.1218611301\naF76463.78819900926\naF-19516.809844734864\naF2913.5991938644593\naF-179.43281928107376\naF4.04857192498525\naF-1.880196855301446\naF149.10869913480516\naF-2760.61075666444\naF25094.391432568696\naF-102285.91833362561\naF225594.92064143947\naF-191071.86152274776\naF94715.34277005425\naF-3418.7690494632284\naF-345374.97488393914\naF665105.9506939386\naF-257675.147353355\naF-101059.7657217012\naF-99546.90292438299\naF-203115.2812972423\naF611139.4845091156\naF-370764.323068854\naF-4727.425105502642\naF124534.19442641287\naF-189355.26045422186\naF143954.43781388665\naF-76809.0377939773\naF19653.513761482816\naF-2882.1959654023135\naF159.3551360716355\naF-1.9998043781004304\naaaasS'means'\np108\n(lp109\nF0.30611086700728773\naF0.3062084268445552\naF0.0\naF0.0\naF0.0\naF0.0\naF0.0\naF0.0\naF0.0\naF0.0\naF0.0\naF0.0\naF0.0\naF0.0\naF0.0\naF0.0\naF0.0\naF0.0\naF0.0\naF0.0\naF0.0\naF0.0\naF0.0\naF0.0\naF0.0\naF0.0\naF0.0\naF0.0\naF0.0\naF0.0\naF0.0\naF0.0\naF0.0\naF0.0\naF0.0\naF0.0\naF0.0\naF0.0\naF0.0\naF0.0\naF0.0\naF0.0\naF0.0\naF0.0\naF0.0\naF0.0\naF0.0\naF0.0\naF0.0\naF0.0\naF0.0\naF0.0\naF0.0\naF0.0\naF0.0\naF0.0\naF0.0\naF0.0\naF0.0\naF0.0\naF0.0\naF0.0\naF0.0\naF0.0\naF0.0\naF0.0\naF0.0\naF0.0\naF0.0\naF0.0\naF0.0\naF0.0\naF0.0\naF0.0\naF0.0\naF0.0\naF0.0\naF0.0\naF0.0\naF0.0\naF0.0\naF0.0\naF0.0\naF0.0\naF0.0\naF0.0\naF0.0\naF0.0\naF0.0\naF0.0\nasS'fix_cov'\np110\nI00\ns."
p2
sS'data'
p3
(dp4
S'E'
p5
(igvar._utilities
GVarRef
p6
(dp7
S'loc'
p8
I0
sbsS'Eqed'
p9
(igvar._utilities
GVarRef
p10
(dp11
g8
I1
sbss.