(dp0
S'gvlist'
p1
S"(dp0\nS'shape'\np1\n(lp2\nI2\nasS'bufsize'\np3\nI2\nsS'bcovs'\np4\n(lp5\n(lp6\n(lp7\na(lp8\na(lp9\na(lp10\naa(lp11\n(lp12\nI0\naI1\naI2\naI3\naI4\naI5\naI6\naI7\naI8\naI9\naI10\naI11\naI12\naI13\naI14\naI15\naI16\naI17\naI18\naI19\naI20\naI21\naI22\naI23\naI24\naI25\naI26\naI27\naI28\naI29\naI30\naI31\naI32\naI33\naI34\naI35\naI36\naI37\naI38\naI39\naI40\naI41\naI42\naI43\naI44\naI45\naI46\naI47\naI48\naI49\naI50\naI51\naI52\naI53\naI54\naI55\naI56\naI57\naI58\naI59\naI60\naI61\naI62\naI63\naI64\naI65\naI66\naI67\naI68\naI69\naI70\naI71\naI72\naI73\naI74\naI75\naI76\naI77\naI78\naI79\naI80\naI81\naI82\naI83\naI84\naI85\naI86\naI87\naI88\naI89\naa(lp13\n(lp14\nF2.5046046409627628e-08\naF2.503272010399998e-08\naF1.6515493047715637e-08\naF3.2155780300828366e-08\naF6.112062217325936e-08\naF-1.3743781934902264e-06\naF-2.937261308838563e-06\naF-1.4518866363660163e-07\naF-2.0012225970949953e-07\naF-1.3761590302027288e-07\naF-7.37340265078428e-08\naF8.112773189840081e-08\naF1.1701369185652483e-06\naF2.383402442886711e-06\naF4.2071148276938844e-07\naF4.147233038985808e-07\naF1.8044843880295097e-10\naF8.385061763134404e-10\naF5.860921927612714e-10\naF2.3170175943666518e-10\naF1.5015575744462443e-08\naF3.271308141859417e-08\naF8.36540108818117e-08\naF-1.8351988084248723e-06\naF-1.0414873204583798e-06\naF-8.22639750143989e-07\naF-2.3200611879091392e-05\naF3.5623022050300625e-06\naF3.304625143402899e-08\naF8.105869130406428e-08\naF1.182737129779352e-06\naF2.8287183917275615e-06\naF-2.281330039804683e-06\naF2.429645184925233e-07\naF2.4151728009458525e-07\naF2.3814190511745257e-07\naF9.022271463901228e-08\naF-5.747066933504411e-11\naF5.480037774164202e-11\naF4.107010315376039e-11\naF2.269944185314961e-11\naF1.2566494436365891e-11\naF2.645383236687269e-12\naF-2.2099719422469367e-12\naF-3.976564702387366e-12\naF-4.685164157101639e-12\naF-5.34081299200854e-12\naF-5.178412294600654e-12\naF-5.2255978794921564e-12\naF-5.157849819299186e-12\naF-4.730253740690998e-12\naF-5.516070422739284e-12\naF-5.7558030099806145e-12\naF-5.7787089211416745e-12\naF-5.344630551414313e-12\naF-4.26949287236509e-12\naF-3.213189752626793e-12\naF-9.945211169928369e-13\naF3.7494994477059465e-12\naF1.0068809000062408e-11\naF2.1686477411791725e-11\naF3.5717847595999333e-11\naF5.324585389417212e-11\naF8.009174712698561e-11\naF5.47758143489716e-11\naF4.105363585885067e-11\naF2.2654674540188206e-11\naF1.2538087805157583e-11\naF2.617241061794753e-12\naF-2.2238791310285516e-12\naF-3.989890895664015e-12\naF-4.691114603182844e-12\naF-5.344756741479644e-12\naF-5.177932176459689e-12\naF-5.223073612060658e-12\naF-5.154099716496311e-12\naF-4.726170148098892e-12\naF-5.504766189436161e-12\naF-5.745489619289473e-12\naF-5.772267637485684e-12\naF-5.344798960375222e-12\naF-4.277184933787168e-12\naF-3.2297742428736846e-12\naF-1.011518331351087e-12\naF3.730020576011003e-12\naF1.0041126820713581e-11\naF2.1636877615896776e-11\naF3.565810316631008e-11\naF5.3179836857641125e-11\naF8.006911660827126e-11\naa(lp15\nF2.503272010399998e-08\naF2.5020625453938726e-08\naF1.65062480084592e-08\naF3.220707363682055e-08\naF6.136706579013614e-08\naF-1.354274516862268e-06\naF-2.9508433922555804e-06\naF-1.3544805997358143e-07\naF-1.9309000694356983e-07\naF-1.3357454625490916e-07\naF-7.173880789647919e-08\naF8.10845683821e-08\naF1.1713528098920959e-06\naF2.3926230356376646e-06\naF4.2434700072334214e-07\naF4.184889447082054e-07\naF1.5379287541085418e-10\naF8.064741358441478e-10\naF5.679457488592778e-10\naF2.2513846622903653e-10\naF1.5008159650688016e-08\naF3.2774638935293136e-08\naF8.417032882802085e-08\naF-1.8515210427357003e-06\naF-1.0197457532893888e-06\naF-8.075956990700931e-07\naF-2.284630162591941e-05\naF3.3585401944429013e-06\naF3.234599574694295e-08\naF8.101952978639888e-08\naF1.184218744128038e-06\naF2.8435467519829985e-06\naF-2.2217709984010554e-06\naF2.391994112937539e-07\naF2.377904809993402e-07\naF2.3448171162467037e-07\naF8.910806490361685e-08\naF-5.5992542631247503e-11\naF5.473190907727315e-11\naF4.10284198423696e-11\naF2.2663158856803614e-11\naF1.255679059422752e-11\naF2.65406469430212e-12\naF-2.221525521607796e-12\naF-3.970819240277618e-12\naF-4.6759834922211645e-12\naF-5.335232346402599e-12\naF-5.175378059323913e-12\naF-5.218334832308285e-12\naF-5.1526340892475285e-12\naF-4.723460814532661e-12\naF-5.520263692443685e-12\naF-5.761128048185077e-12\naF-5.788729301103168e-12\naF-5.354736967201688e-12\naF-4.287697936383788e-12\naF-3.2459827576837694e-12\naF-1.0457206983010834e-12\naF3.689277553180326e-12\naF9.96847231282262e-12\naF2.1571076500323212e-11\naF3.551669625669455e-11\naF5.2952471408391993e-11\naF7.971224040281516e-11\naF5.470771650566212e-11\naF4.101234776019806e-11\naF2.26188441487231e-11\naF1.2528759356712694e-11\naF2.626210669354279e-12\naF-2.235235991941e-12\naF-3.984015865800376e-12\naF-4.681871659014292e-12\naF-5.339114341770246e-12\naF-5.174855727327629e-12\naF-5.215782193421311e-12\naF-5.1488786498647045e-12\naF-4.719383729947897e-12\naF-5.509036316450255e-12\naF-5.750880256247118e-12\naF-5.782336963582518e-12\naF-5.354959410638067e-12\naF-4.2954564719658384e-12\naF-3.2626493897936483e-12\naF-1.0628303272311802e-12\naF3.669716747715039e-12\naF9.940826445319071e-12\naF2.1521585110997807e-11\naF3.5457051469795746e-11\naF5.2886524603331504e-11\naF7.968942041390538e-11\naa(lp16\nF1.6515493047715637e-08\naF1.65062480084592e-08\naF0.0001\naF0.0\naF0.0\naF0.0\naF0.0\naF0.0\naF0.0\naF0.0\naF0.0\naF0.0\naF0.0\naF0.0\naF0.0\naF0.0\naF0.0\naF0.0\naF0.0\naF0.0\naF0.0\naF0.0\naF0.0\naF0.0\naF0.0\naF0.0\naF0.0\naF0.0\naF0.0\naF0.0\naF0.0\naF0.0\naF0.0\naF0.0\naF0.0\naF0.0\naF0.0\naF0.0\naF0.0\naF0.0\naF0.0\naF0.0\naF0.0\naF0.0\naF0.0\naF0.0\naF0.0\naF0.0\naF0.0\naF0.0\naF0.0\naF0.0\naF0.0\naF0.0\naF0.0\naF0.0\naF0.0\naF0.0\naF0.0\naF0.0\naF0.0\naF0.0\naF0.0\naF0.0\naF0.0\naF0.0\naF0.0\naF0.0\naF0.0\naF0.0\naF0.0\naF0.0\naF0.0\naF0.0\naF0.0\naF0.0\naF0.0\naF0.0\naF0.0\naF0.0\naF0.0\naF0.0\naF0.0\naF0.0\naF0.0\naF0.0\naF0.0\naF0.0\naF0.0\naF0.0\naa(lp17\nF3.2155780300828366e-08\naF3.220707363682055e-08\naF0.0\naF0.9801\naF0.0\naF0.0\naF0.0\naF0.0\naF0.0\naF0.0\naF0.0\naF0.0\naF0.0\naF0.0\naF0.0\naF0.0\naF0.0\naF0.0\naF0.0\naF0.0\naF0.0\naF0.0\naF0.0\naF0.0\naF0.0\naF0.0\naF0.0\naF0.0\naF0.0\naF0.0\naF0.0\naF0.0\naF0.0\naF0.0\naF0.0\naF0.0\naF0.0\naF0.0\naF0.0\naF0.0\naF0.0\naF0.0\naF0.0\naF0.0\naF0.0\naF0.0\naF0.0\naF0.0\naF0.0\naF0.0\naF0.0\naF0.0\naF0.0\naF0.0\naF0.0\naF0.0\naF0.0\naF0.0\naF0.0\naF0.0\naF0.0\naF0.0\naF0.0\naF0.0\naF0.0\naF0.0\naF0.0\naF0.0\naF0.0\naF0.0\naF0.0\naF0.0\naF0.0\naF0.0\naF0.0\naF0.0\naF0.0\naF0.0\naF0.0\naF0.0\naF0.0\naF0.0\naF0.0\naF0.0\naF0.0\naF0.0\naF0.0\naF0.0\naF0.0\naF0.0\naa(lp18\nF6.112062217325936e-08\naF6.136706579013614e-08\naF0.0\naF0.0\naF0.9801\naF0.0\naF0.0\naF0.0\naF0.0\naF0.0\naF0.0\naF0.0\naF0.0\naF0.0\naF0.0\naF0.0\naF0.0\naF0.0\naF0.0\naF0.0\naF0.0\naF0.0\naF0.0\naF0.0\naF0.0\naF0.0\naF0.0\naF0.0\naF0.0\naF0.0\naF0.0\naF0.0\naF0.0\naF0.0\naF0.0\naF0.0\naF0.0\naF0.0\naF0.0\naF0.0\naF0.0\naF0.0\naF0.0\naF0.0\naF0.0\naF0.0\naF0.0\naF0.0\naF0.0\naF0.0\naF0.0\naF0.0\naF0.0\naF0.0\naF0.0\naF0.0\naF0.0\naF0.0\naF0.0\naF0.0\naF0.0\naF0.0\naF0.0\naF0.0\naF0.0\naF0.0\naF0.0\naF0.0\naF0.0\naF0.0\naF0.0\naF0.0\naF0.0\naF0.0\naF0.0\naF0.0\naF0.0\naF0.0\naF0.0\naF0.0\naF0.0\naF0.0\naF0.0\naF0.0\naF0.0\naF0.0\naF0.0\naF0.0\naF0.0\naF0.0\naa(lp19\nF-1.3743781934902264e-06\naF-1.354274516862268e-06\naF0.0\naF0.0\naF0.0\naF0.9801\naF0.0\naF0.0\naF0.0\naF0.0\naF0.0\naF0.0\naF0.0\naF0.0\naF0.0\naF0.0\naF0.0\naF0.0\naF0.0\naF0.0\naF0.0\naF0.0\naF0.0\naF0.0\naF0.0\naF0.0\naF0.0\naF0.0\naF0.0\naF0.0\naF0.0\naF0.0\naF0.0\naF0.0\naF0.0\naF0.0\naF0.0\naF0.0\naF0.0\naF0.0\naF0.0\naF0.0\naF0.0\naF0.0\naF0.0\naF0.0\naF0.0\naF0.0\naF0.0\naF0.0\naF0.0\naF0.0\naF0.0\naF0.0\naF0.0\naF0.0\naF0.0\naF0.0\naF0.0\naF0.0\naF0.0\naF0.0\naF0.0\naF0.0\naF0.0\naF0.0\naF0.0\naF0.0\naF0.0\naF0.0\naF0.0\naF0.0\naF0.0\naF0.0\naF0.0\naF0.0\naF0.0\naF0.0\naF0.0\naF0.0\naF0.0\naF0.0\naF0.0\naF0.0\naF0.0\naF0.0\naF0.0\naF0.0\naF0.0\naF0.0\naa(lp20\nF-2.937261308838563e-06\naF-2.9508433922555804e-06\naF0.0\naF0.0\naF0.0\naF0.0\naF0.9801\naF0.0\naF0.0\naF0.0\naF0.0\naF0.0\naF0.0\naF0.0\naF0.0\naF0.0\naF0.0\naF0.0\naF0.0\naF0.0\naF0.0\naF0.0\naF0.0\naF0.0\naF0.0\naF0.0\naF0.0\naF0.0\naF0.0\naF0.0\naF0.0\naF0.0\naF0.0\naF0.0\naF0.0\naF0.0\naF0.0\naF0.0\naF0.0\naF0.0\naF0.0\naF0.0\naF0.0\naF0.0\naF0.0\naF0.0\naF0.0\naF0.0\naF0.0\naF0.0\naF0.0\naF0.0\naF0.0\naF0.0\naF0.0\naF0.0\naF0.0\naF0.0\naF0.0\naF0.0\naF0.0\naF0.0\naF0.0\naF0.0\naF0.0\naF0.0\naF0.0\naF0.0\naF0.0\naF0.0\naF0.0\naF0.0\naF0.0\naF0.0\naF0.0\naF0.0\naF0.0\naF0.0\naF0.0\naF0.0\naF0.0\naF0.0\naF0.0\naF0.0\naF0.0\naF0.0\naF0.0\naF0.0\naF0.0\naF0.0\naa(lp21\nF-1.4518866363660163e-07\naF-1.3544805997358143e-07\naF0.0\naF0.0\naF0.0\naF0.0\naF0.0\naF0.9801\naF0.0\naF0.0\naF0.0\naF0.0\naF0.0\naF0.0\naF0.0\naF0.0\naF0.0\naF0.0\naF0.0\naF0.0\naF0.0\naF0.0\naF0.0\naF0.0\naF0.0\naF0.0\naF0.0\naF0.0\naF0.0\naF0.0\naF0.0\naF0.0\naF0.0\naF0.0\naF0.0\naF0.0\naF0.0\naF0.0\naF0.0\naF0.0\naF0.0\naF0.0\naF0.0\naF0.0\naF0.0\naF0.0\naF0.0\naF0.0\naF0.0\naF0.0\naF0.0\naF0.0\naF0.0\naF0.0\naF0.0\naF0.0\naF0.0\naF0.0\naF0.0\naF0.0\naF0.0\naF0.0\naF0.0\naF0.0\naF0.0\naF0.0\naF0.0\naF0.0\naF0.0\naF0.0\naF0.0\naF0.0\naF0.0\naF0.0\naF0.0\naF0.0\naF0.0\naF0.0\naF0.0\naF0.0\naF0.0\naF0.0\naF0.0\naF0.0\naF0.0\naF0.0\naF0.0\naF0.0\naF0.0\naF0.0\naa(lp22\nF-2.0012225970949953e-07\naF-1.9309000694356983e-07\naF0.0\naF0.0\naF0.0\naF0.0\naF0.0\naF0.0\naF0.9801\naF0.0\naF0.0\naF0.0\naF0.0\naF0.0\naF0.0\naF0.0\naF0.0\naF0.0\naF0.0\naF0.0\naF0.0\naF0.0\naF0.0\naF0.0\naF0.0\naF0.0\naF0.0\naF0.0\naF0.0\naF0.0\naF0.0\naF0.0\naF0.0\naF0.0\naF0.0\naF0.0\naF0.0\naF0.0\naF0.0\naF0.0\naF0.0\naF0.0\naF0.0\naF0.0\naF0.0\naF0.0\naF0.0\naF0.0\naF0.0\naF0.0\naF0.0\naF0.0\naF0.0\naF0.0\naF0.0\naF0.0\naF0.0\naF0.0\naF0.0\naF0.0\naF0.0\naF0.0\naF0.0\naF0.0\naF0.0\naF0.0\naF0.0\naF0.0\naF0.0\naF0.0\naF0.0\naF0.0\naF0.0\naF0.0\naF0.0\naF0.0\naF0.0\naF0.0\naF0.0\naF0.0\naF0.0\naF0.0\naF0.0\naF0.0\naF0.0\naF0.0\naF0.0\naF0.0\naF0.0\naF0.0\naa(lp23\nF-1.3761590302027288e-07\naF-1.3357454625490916e-07\naF0.0\naF0.0\naF0.0\naF0.0\naF0.0\naF0.0\naF0.0\naF0.9801\naF0.0\naF0.0\naF0.0\naF0.0\naF0.0\naF0.0\naF0.0\naF0.0\naF0.0\naF0.0\naF0.0\naF0.0\naF0.0\naF0.0\naF0.0\naF0.0\naF0.0\naF0.0\naF0.0\naF0.0\naF0.0\naF0.0\naF0.0\naF0.0\naF0.0\naF0.0\naF0.0\naF0.0\naF0.0\naF0.0\naF0.0\naF0.0\naF0.0\naF0.0\naF0.0\naF0.0\naF0.0\naF0.0\naF0.0\naF0.0\naF0.0\naF0.0\naF0.0\naF0.0\naF0.0\naF0.0\naF0.0\naF0.0\naF0.0\naF0.0\naF0.0\naF0.0\naF0.0\naF0.0\naF0.0\naF0.0\naF0.0\naF0.0\naF0.0\naF0.0\naF0.0\naF0.0\naF0.0\naF0.0\naF0.0\naF0.0\naF0.0\naF0.0\naF0.0\naF0.0\naF0.0\naF0.0\naF0.0\naF0.0\naF0.0\naF0.0\naF0.0\naF0.0\naF0.0\naF0.0\naa(lp24\nF-7.37340265078428e-08\naF-7.173880789647919e-08\naF0.0\naF0.0\naF0.0\naF0.0\naF0.0\naF0.0\naF0.0\naF0.0\naF0.9801\naF0.0\naF0.0\naF0.0\naF0.0\naF0.0\naF0.0\naF0.0\naF0.0\naF0.0\naF0.0\naF0.0\naF0.0\naF0.0\naF0.0\naF0.0\naF0.0\naF0.0\naF0.0\naF0.0\naF0.0\naF0.0\naF0.0\naF0.0\naF0.0\naF0.0\naF0.0\naF0.0\naF0.0\naF0.0\naF0.0\naF0.0\naF0.0\naF0.0\naF0.0\naF0.0\naF0.0\naF0.0\naF0.0\naF0.0\naF0.0\naF0.0\naF0.0\naF0.0\naF0.0\naF0.0\naF0.0\naF0.0\naF0.0\naF0.0\naF0.0\naF0.0\naF0.0\naF0.0\naF0.0\naF0.0\naF0.0\naF0.0\naF0.0\naF0.0\naF0.0\naF0.0\naF0.0\naF0.0\naF0.0\naF0.0\naF0.0\naF0.0\naF0.0\naF0.0\naF0.0\naF0.0\naF0.0\naF0.0\naF0.0\naF0.0\naF0.0\naF0.0\naF0.0\naF0.0\naa(lp25\nF8.112773189840081e-08\naF8.10845683821e-08\naF0.0\naF0.0\naF0.0\naF0.0\naF0.0\naF0.0\naF0.0\naF0.0\naF0.0\naF0.81\naF0.0\naF0.0\naF0.0\naF0.0\naF0.0\naF0.0\naF0.0\naF0.0\naF0.0\naF0.0\naF0.0\naF0.0\naF0.0\naF0.0\naF0.0\naF0.0\naF0.0\naF0.0\naF0.0\naF0.0\naF0.0\naF0.0\naF0.0\naF0.0\naF0.0\naF0.0\naF0.0\naF0.0\naF0.0\naF0.0\naF0.0\naF0.0\naF0.0\naF0.0\naF0.0\naF0.0\naF0.0\naF0.0\naF0.0\naF0.0\naF0.0\naF0.0\naF0.0\naF0.0\naF0.0\naF0.0\naF0.0\naF0.0\naF0.0\naF0.0\naF0.0\naF0.0\naF0.0\naF0.0\naF0.0\naF0.0\naF0.0\naF0.0\naF0.0\naF0.0\naF0.0\naF0.0\naF0.0\naF0.0\naF0.0\naF0.0\naF0.0\naF0.0\naF0.0\naF0.0\naF0.0\naF0.0\naF0.0\naF0.0\naF0.0\naF0.0\naF0.0\naF0.0\naa(lp26\nF1.1701369185652483e-06\naF1.1713528098920959e-06\naF0.0\naF0.0\naF0.0\naF0.0\naF0.0\naF0.0\naF0.0\naF0.0\naF0.0\naF0.0\naF0.25\naF0.0\naF0.0\naF0.0\naF0.0\naF0.0\naF0.0\naF0.0\naF0.0\naF0.0\naF0.0\naF0.0\naF0.0\naF0.0\naF0.0\naF0.0\naF0.0\naF0.0\naF0.0\naF0.0\naF0.0\naF0.0\naF0.0\naF0.0\naF0.0\naF0.0\naF0.0\naF0.0\naF0.0\naF0.0\naF0.0\naF0.0\naF0.0\naF0.0\naF0.0\naF0.0\naF0.0\naF0.0\naF0.0\naF0.0\naF0.0\naF0.0\naF0.0\naF0.0\naF0.0\naF0.0\naF0.0\naF0.0\naF0.0\naF0.0\naF0.0\naF0.0\naF0.0\naF0.0\naF0.0\naF0.0\naF0.0\naF0.0\naF0.0\naF0.0\naF0.0\naF0.0\naF0.0\naF0.0\naF0.0\naF0.0\naF0.0\naF0.0\naF0.0\naF0.0\naF0.0\naF0.0\naF0.0\naF0.0\naF0.0\naF0.0\naF0.0\naF0.0\naa(lp27\nF2.383402442886711e-06\naF2.3926230356376646e-06\naF0.0\naF0.0\naF0.0\naF0.0\naF0.0\naF0.0\naF0.0\naF0.0\naF0.0\naF0.0\naF0.0\naF0.25\naF0.0\naF0.0\naF0.0\naF0.0\naF0.0\naF0.0\naF0.0\naF0.0\naF0.0\naF0.0\naF0.0\naF0.0\naF0.0\naF0.0\naF0.0\naF0.0\naF0.0\naF0.0\naF0.0\naF0.0\naF0.0\naF0.0\naF0.0\naF0.0\naF0.0\naF0.0\naF0.0\naF0.0\naF0.0\naF0.0\naF0.0\naF0.0\naF0.0\naF0.0\naF0.0\naF0.0\naF0.0\naF0.0\naF0.0\naF0.0\naF0.0\naF0.0\naF0.0\naF0.0\naF0.0\naF0.0\naF0.0\naF0.0\naF0.0\naF0.0\naF0.0\naF0.0\naF0.0\naF0.0\naF0.0\naF0.0\naF0.0\naF0.0\naF0.0\naF0.0\naF0.0\naF0.0\naF0.0\naF0.0\naF0.0\naF0.0\naF0.0\naF0.0\naF0.0\naF0.0\naF0.0\naF0.0\naF0.0\naF0.0\naF0.0\naF0.0\naa(lp28\nF4.2071148276938844e-07\naF4.2434700072334214e-07\naF0.0\naF0.0\naF0.0\naF0.0\naF0.0\naF0.0\naF0.0\naF0.0\naF0.0\naF0.0\naF0.0\naF0.0\naF0.25\naF0.0\naF0.0\naF0.0\naF0.0\naF0.0\naF0.0\naF0.0\naF0.0\naF0.0\naF0.0\naF0.0\naF0.0\naF0.0\naF0.0\naF0.0\naF0.0\naF0.0\naF0.0\naF0.0\naF0.0\naF0.0\naF0.0\naF0.0\naF0.0\naF0.0\naF0.0\naF0.0\naF0.0\naF0.0\naF0.0\naF0.0\naF0.0\naF0.0\naF0.0\naF0.0\naF0.0\naF0.0\naF0.0\naF0.0\naF0.0\naF0.0\naF0.0\naF0.0\naF0.0\naF0.0\naF0.0\naF0.0\naF0.0\naF0.0\naF0.0\naF0.0\naF0.0\naF0.0\naF0.0\naF0.0\naF0.0\naF0.0\naF0.0\naF0.0\naF0.0\naF0.0\naF0.0\naF0.0\naF0.0\naF0.0\naF0.0\naF0.0\naF0.0\naF0.0\naF0.0\naF0.0\naF0.0\naF0.0\naF0.0\naF0.0\naa(lp29\nF4.147233038985808e-07\naF4.184889447082054e-07\naF0.0\naF0.0\naF0.0\naF0.0\naF0.0\naF0.0\naF0.0\naF0.0\naF0.0\naF0.0\naF0.0\naF0.0\naF0.0\naF0.25\naF0.0\naF0.0\naF0.0\naF0.0\naF0.0\naF0.0\naF0.0\naF0.0\naF0.0\naF0.0\naF0.0\naF0.0\naF0.0\naF0.0\naF0.0\naF0.0\naF0.0\naF0.0\naF0.0\naF0.0\naF0.0\naF0.0\naF0.0\naF0.0\naF0.0\naF0.0\naF0.0\naF0.0\naF0.0\naF0.0\naF0.0\naF0.0\naF0.0\naF0.0\naF0.0\naF0.0\naF0.0\naF0.0\naF0.0\naF0.0\naF0.0\naF0.0\naF0.0\naF0.0\naF0.0\naF0.0\naF0.0\naF0.0\naF0.0\naF0.0\naF0.0\naF0.0\naF0.0\naF0.0\naF0.0\naF0.0\naF0.0\naF0.0\naF0.0\naF0.0\naF0.0\naF0.0\naF0.0\naF0.0\naF0.0\naF0.0\naF0.0\naF0.0\naF0.0\naF0.0\naF0.0\naF0.0\naF0.0\naF0.0\naa(lp30\nF1.8044843880295097e-10\naF1.5379287541085418e-10\naF0.0\naF0.0\naF0.0\naF0.0\naF0.0\naF0.0\naF0.0\naF0.0\naF0.0\naF0.0\naF0.0\naF0.0\naF0.0\naF0.0\naF0.25\naF0.0\naF0.0\naF0.0\naF0.0\naF0.0\naF0.0\naF0.0\naF0.0\naF0.0\naF0.0\naF0.0\naF0.0\naF0.0\naF0.0\naF0.0\naF0.0\naF0.0\naF0.0\naF0.0\naF0.0\naF0.0\naF0.0\naF0.0\naF0.0\naF0.0\naF0.0\naF0.0\naF0.0\naF0.0\naF0.0\naF0.0\naF0.0\naF0.0\naF0.0\naF0.0\naF0.0\naF0.0\naF0.0\naF0.0\naF0.0\naF0.0\naF0.0\naF0.0\naF0.0\naF0.0\naF0.0\naF0.0\naF0.0\naF0.0\naF0.0\naF0.0\naF0.0\naF0.0\naF0.0\naF0.0\naF0.0\naF0.0\naF0.0\naF0.0\naF0.0\naF0.0\naF0.0\naF0.0\naF0.0\naF0.0\naF0.0\naF0.0\naF0.0\naF0.0\naF0.0\naF0.0\naF0.0\naF0.0\naa(lp31\nF8.385061763134404e-10\naF8.064741358441478e-10\naF0.0\naF0.0\naF0.0\naF0.0\naF0.0\naF0.0\naF0.0\naF0.0\naF0.0\naF0.0\naF0.0\naF0.0\naF0.0\naF0.0\naF0.0\naF0.25\naF0.0\naF0.0\naF0.0\naF0.0\naF0.0\naF0.0\naF0.0\naF0.0\naF0.0\naF0.0\naF0.0\naF0.0\naF0.0\naF0.0\naF0.0\naF0.0\naF0.0\naF0.0\naF0.0\naF0.0\naF0.0\naF0.0\naF0.0\naF0.0\naF0.0\naF0.0\naF0.0\naF0.0\naF0.0\naF0.0\naF0.0\naF0.0\naF0.0\naF0.0\naF0.0\naF0.0\naF0.0\naF0.0\naF0.0\naF0.0\naF0.0\naF0.0\naF0.0\naF0.0\naF0.0\naF0.0\naF0.0\naF0.0\naF0.0\naF0.0\naF0.0\naF0.0\naF0.0\naF0.0\naF0.0\naF0.0\naF0.0\naF0.0\naF0.0\naF0.0\naF0.0\naF0.0\naF0.0\naF0.0\naF0.0\naF0.0\naF0.0\naF0.0\naF0.0\naF0.0\naF0.0\naF0.0\naa(lp32\nF5.860921927612714e-10\naF5.679457488592778e-10\naF0.0\naF0.0\naF0.0\naF0.0\naF0.0\naF0.0\naF0.0\naF0.0\naF0.0\naF0.0\naF0.0\naF0.0\naF0.0\naF0.0\naF0.0\naF0.0\naF0.25\naF0.0\naF0.0\naF0.0\naF0.0\naF0.0\naF0.0\naF0.0\naF0.0\naF0.0\naF0.0\naF0.0\naF0.0\naF0.0\naF0.0\naF0.0\naF0.0\naF0.0\naF0.0\naF0.0\naF0.0\naF0.0\naF0.0\naF0.0\naF0.0\naF0.0\naF0.0\naF0.0\naF0.0\naF0.0\naF0.0\naF0.0\naF0.0\naF0.0\naF0.0\naF0.0\naF0.0\naF0.0\naF0.0\naF0.0\naF0.0\naF0.0\naF0.0\naF0.0\naF0.0\naF0.0\naF0.0\naF0.0\naF0.0\naF0.0\naF0.0\naF0.0\naF0.0\naF0.0\naF0.0\naF0.0\naF0.0\naF0.0\naF0.0\naF0.0\naF0.0\naF0.0\naF0.0\naF0.0\naF0.0\naF0.0\naF0.0\naF0.0\naF0.0\naF0.0\naF0.0\naF0.0\naa(lp33\nF2.3170175943666518e-10\naF2.2513846622903653e-10\naF0.0\naF0.0\naF0.0\naF0.0\naF0.0\naF0.0\naF0.0\naF0.0\naF0.0\naF0.0\naF0.0\naF0.0\naF0.0\naF0.0\naF0.0\naF0.0\naF0.0\naF0.25\naF0.0\naF0.0\naF0.0\naF0.0\naF0.0\naF0.0\naF0.0\naF0.0\naF0.0\naF0.0\naF0.0\naF0.0\naF0.0\naF0.0\naF0.0\naF0.0\naF0.0\naF0.0\naF0.0\naF0.0\naF0.0\naF0.0\naF0.0\naF0.0\naF0.0\naF0.0\naF0.0\naF0.0\naF0.0\naF0.0\naF0.0\naF0.0\naF0.0\naF0.0\naF0.0\naF0.0\naF0.0\naF0.0\naF0.0\naF0.0\naF0.0\naF0.0\naF0.0\naF0.0\naF0.0\naF0.0\naF0.0\naF0.0\naF0.0\naF0.0\naF0.0\naF0.0\naF0.0\naF0.0\naF0.0\naF0.0\naF0.0\naF0.0\naF0.0\naF0.0\naF0.0\naF0.0\naF0.0\naF0.0\naF0.0\naF0.0\naF0.0\naF0.0\naF0.0\naF0.0\naa(lp34\nF1.5015575744462443e-08\naF1.5008159650688016e-08\naF0.0\naF0.0\naF0.0\naF0.0\naF0.0\naF0.0\naF0.0\naF0.0\naF0.0\naF0.0\naF0.0\naF0.0\naF0.0\naF0.0\naF0.0\naF0.0\naF0.0\naF0.0\naF0.010000000000000002\naF0.0\naF0.0\naF0.0\naF0.0\naF0.0\naF0.0\naF0.0\naF0.0\naF0.0\naF0.0\naF0.0\naF0.0\naF0.0\naF0.0\naF0.0\naF0.0\naF0.0\naF0.0\naF0.0\naF0.0\naF0.0\naF0.0\naF0.0\naF0.0\naF0.0\naF0.0\naF0.0\naF0.0\naF0.0\naF0.0\naF0.0\naF0.0\naF0.0\naF0.0\naF0.0\naF0.0\naF0.0\naF0.0\naF0.0\naF0.0\naF0.0\naF0.0\naF0.0\naF0.0\naF0.0\naF0.0\naF0.0\naF0.0\naF0.0\naF0.0\naF0.0\naF0.0\naF0.0\naF0.0\naF0.0\naF0.0\naF0.0\naF0.0\naF0.0\naF0.0\naF0.0\naF0.0\naF0.0\naF0.0\naF0.0\naF0.0\naF0.0\naF0.0\naF0.0\naa(lp35\nF3.271308141859417e-08\naF3.2774638935293136e-08\naF0.0\naF0.0\naF0.0\naF0.0\naF0.0\naF0.0\naF0.0\naF0.0\naF0.0\naF0.0\naF0.0\naF0.0\naF0.0\naF0.0\naF0.0\naF0.0\naF0.0\naF0.0\naF0.0\naF0.9801\naF0.0\naF0.0\naF0.0\naF0.0\naF0.0\naF0.0\naF0.0\naF0.0\naF0.0\naF0.0\naF0.0\naF0.0\naF0.0\naF0.0\naF0.0\naF0.0\naF0.0\naF0.0\naF0.0\naF0.0\naF0.0\naF0.0\naF0.0\naF0.0\naF0.0\naF0.0\naF0.0\naF0.0\naF0.0\naF0.0\naF0.0\naF0.0\naF0.0\naF0.0\naF0.0\naF0.0\naF0.0\naF0.0\naF0.0\naF0.0\naF0.0\naF0.0\naF0.0\naF0.0\naF0.0\naF0.0\naF0.0\naF0.0\naF0.0\naF0.0\naF0.0\naF0.0\naF0.0\naF0.0\naF0.0\naF0.0\naF0.0\naF0.0\naF0.0\naF0.0\naF0.0\naF0.0\naF0.0\naF0.0\naF0.0\naF0.0\naF0.0\naF0.0\naa(lp36\nF8.36540108818117e-08\naF8.417032882802085e-08\naF0.0\naF0.0\naF0.0\naF0.0\naF0.0\naF0.0\naF0.0\naF0.0\naF0.0\naF0.0\naF0.0\naF0.0\naF0.0\naF0.0\naF0.0\naF0.0\naF0.0\naF0.0\naF0.0\naF0.0\naF0.9801\naF0.0\naF0.0\naF0.0\naF0.0\naF0.0\naF0.0\naF0.0\naF0.0\naF0.0\naF0.0\naF0.0\naF0.0\naF0.0\naF0.0\naF0.0\naF0.0\naF0.0\naF0.0\naF0.0\naF0.0\naF0.0\naF0.0\naF0.0\naF0.0\naF0.0\naF0.0\naF0.0\naF0.0\naF0.0\naF0.0\naF0.0\naF0.0\naF0.0\naF0.0\naF0.0\naF0.0\naF0.0\naF0.0\naF0.0\naF0.0\naF0.0\naF0.0\naF0.0\naF0.0\naF0.0\naF0.0\naF0.0\naF0.0\naF0.0\naF0.0\naF0.0\naF0.0\naF0.0\naF0.0\naF0.0\naF0.0\naF0.0\naF0.0\naF0.0\naF0.0\naF0.0\naF0.0\naF0.0\naF0.0\naF0.0\naF0.0\naF0.0\naa(lp37\nF-1.8351988084248723e-06\naF-1.8515210427357003e-06\naF0.0\naF0.0\naF0.0\naF0.0\naF0.0\naF0.0\naF0.0\naF0.0\naF0.0\naF0.0\naF0.0\naF0.0\naF0.0\naF0.0\naF0.0\naF0.0\naF0.0\naF0.0\naF0.0\naF0.0\naF0.0\naF0.9801\naF0.0\naF0.0\naF0.0\naF0.0\naF0.0\naF0.0\naF0.0\naF0.0\naF0.0\naF0.0\naF0.0\naF0.0\naF0.0\naF0.0\naF0.0\naF0.0\naF0.0\naF0.0\naF0.0\naF0.0\naF0.0\naF0.0\naF0.0\naF0.0\naF0.0\naF0.0\naF0.0\naF0.0\naF0.0\naF0.0\naF0.0\naF0.0\naF0.0\naF0.0\naF0.0\naF0.0\naF0.0\naF0.0\naF0.0\naF0.0\naF0.0\naF0.0\naF0.0\naF0.0\naF0.0\naF0.0\naF0.0\naF0.0\naF0.0\naF0.0\naF0.0\naF0.0\naF0.0\naF0.0\naF0.0\naF0.0\naF0.0\naF0.0\naF0.0\naF0.0\naF0.0\naF0.0\naF0.0\naF0.0\naF0.0\naF0.0\naa(lp38\nF-1.0414873204583798e-06\naF-1.0197457532893888e-06\naF0.0\naF0.0\naF0.0\naF0.0\naF0.0\naF0.0\naF0.0\naF0.0\naF0.0\naF0.0\naF0.0\naF0.0\naF0.0\naF0.0\naF0.0\naF0.0\naF0.0\naF0.0\naF0.0\naF0.0\naF0.0\naF0.0\naF0.9801\naF0.0\naF0.0\naF0.0\naF0.0\naF0.0\naF0.0\naF0.0\naF0.0\naF0.0\naF0.0\naF0.0\naF0.0\naF0.0\naF0.0\naF0.0\naF0.0\naF0.0\naF0.0\naF0.0\naF0.0\naF0.0\naF0.0\naF0.0\naF0.0\naF0.0\naF0.0\naF0.0\naF0.0\naF0.0\naF0.0\naF0.0\naF0.0\naF0.0\naF0.0\naF0.0\naF0.0\naF0.0\naF0.0\naF0.0\naF0.0\naF0.0\naF0.0\naF0.0\naF0.0\naF0.0\naF0.0\naF0.0\naF0.0\naF0.0\naF0.0\naF0.0\naF0.0\naF0.0\naF0.0\naF0.0\naF0.0\naF0.0\naF0.0\naF0.0\naF0.0\naF0.0\naF0.0\naF0.0\naF0.0\naF0.0\naa(lp39\nF-8.22639750143989e-07\naF-8.075956990700931e-07\naF0.0\naF0.0\naF0.0\naF0.0\naF0.0\naF0.0\naF0.0\naF0.0\naF0.0\naF0.0\naF0.0\naF0.0\naF0.0\naF0.0\naF0.0\naF0.0\naF0.0\naF0.0\naF0.0\naF0.0\naF0.0\naF0.0\naF0.0\naF0.9801\naF0.0\naF0.0\naF0.0\naF0.0\naF0.0\naF0.0\naF0.0\naF0.0\naF0.0\naF0.0\naF0.0\naF0.0\naF0.0\naF0.0\naF0.0\naF0.0\naF0.0\naF0.0\naF0.0\naF0.0\naF0.0\naF0.0\naF0.0\naF0.0\naF0.0\naF0.0\naF0.0\naF0.0\naF0.0\naF0.0\naF0.0\naF0.0\naF0.0\naF0.0\naF0.0\naF0.0\naF0.0\naF0.0\naF0.0\naF0.0\naF0.0\naF0.0\naF0.0\naF0.0\naF0.0\naF0.0\naF0.0\naF0.0\naF0.0\naF0.0\naF0.0\naF0.0\naF0.0\naF0.0\naF0.0\naF0.0\naF0.0\naF0.0\naF0.0\naF0.0\naF0.0\naF0.0\naF0.0\naF0.0\naa(lp40\nF-2.3200611879091392e-05\naF-2.284630162591941e-05\naF0.0\naF0.0\naF0.0\naF0.0\naF0.0\naF0.0\naF0.0\naF0.0\naF0.0\naF0.0\naF0.0\naF0.0\naF0.0\naF0.0\naF0.0\naF0.0\naF0.0\naF0.0\naF0.0\naF0.0\naF0.0\naF0.0\naF0.0\naF0.0\naF0.9801\naF0.0\naF0.0\naF0.0\naF0.0\naF0.0\naF0.0\naF0.0\naF0.0\naF0.0\naF0.0\naF0.0\naF0.0\naF0.0\naF0.0\naF0.0\naF0.0\naF0.0\naF0.0\naF0.0\naF0.0\naF0.0\naF0.0\naF0.0\naF0.0\naF0.0\naF0.0\naF0.0\naF0.0\naF0.0\naF0.0\naF0.0\naF0.0\naF0.0\naF0.0\naF0.0\naF0.0\naF0.0\naF0.0\naF0.0\naF0.0\naF0.0\naF0.0\naF0.0\naF0.0\naF0.0\naF0.0\naF0.0\naF0.0\naF0.0\naF0.0\naF0.0\naF0.0\naF0.0\naF0.0\naF0.0\naF0.0\naF0.0\naF0.0\naF0.0\naF0.0\naF0.0\naF0.0\naF0.0\naa(lp41\nF3.5623022050300625e-06\naF3.3585401944429013e-06\naF0.0\naF0.0\naF0.0\naF0.0\naF0.0\naF0.0\naF0.0\naF0.0\naF0.0\naF0.0\naF0.0\naF0.0\naF0.0\naF0.0\naF0.0\naF0.0\naF0.0\naF0.0\naF0.0\naF0.0\naF0.0\naF0.0\naF0.0\naF0.0\naF0.0\naF0.9801\naF0.0\naF0.0\naF0.0\naF0.0\naF0.0\naF0.0\naF0.0\naF0.0\naF0.0\naF0.0\naF0.0\naF0.0\naF0.0\naF0.0\naF0.0\naF0.0\naF0.0\naF0.0\naF0.0\naF0.0\naF0.0\naF0.0\naF0.0\naF0.0\naF0.0\naF0.0\naF0.0\naF0.0\naF0.0\naF0.0\naF0.0\naF0.0\naF0.0\naF0.0\naF0.0\naF0.0\naF0.0\naF0.0\naF0.0\naF0.0\naF0.0\naF0.0\naF0.0\naF0.0\naF0.0\naF0.0\naF0.0\naF0.0\naF0.0\naF0.0\naF0.0\naF0.0\naF0.0\naF0.0\naF0.0\naF0.0\naF0.0\naF0.0\naF0.0\naF0.0\naF0.0\naF0.0\naa(lp42\nF3.304625143402899e-08\naF3.234599574694295e-08\naF0.0\naF0.0\naF0.0\naF0.0\naF0.0\naF0.0\naF0.0\naF0.0\naF0.0\naF0.0\naF0.0\naF0.0\naF0.0\naF0.0\naF0.0\naF0.0\naF0.0\naF0.0\naF0.0\naF0.0\naF0.0\naF0.0\naF0.0\naF0.0\naF0.0\naF0.0\naF0.9801\naF0.0\naF0.0\naF0.0\naF0.0\naF0.0\naF0.0\naF0.0\naF0.0\naF0.0\naF0.0\naF0.0\naF0.0\naF0.0\naF0.0\naF0.0\naF0.0\naF0.0\naF0.0\naF0.0\naF0.0\naF0.0\naF0.0\naF0.0\naF0.0\naF0.0\naF0.0\naF0.0\naF0.0\naF0.0\naF0.0\naF0.0\naF0.0\naF0.0\naF0.0\naF0.0\naF0.0\naF0.0\naF0.0\naF0.0\naF0.0\naF0.0\naF0.0\naF0.0\naF0.0\naF0.0\naF0.0\naF0.0\naF0.0\naF0.0\naF0.0\naF0.0\naF0.0\naF0.0\naF0.0\naF0.0\naF0.0\naF0.0\naF0.0\naF0.0\naF0.0\naF0.0\naa(lp43\nF8.105869130406428e-08\naF8.101952978639888e-08\naF0.0\naF0.0\naF0.0\naF0.0\naF0.0\naF0.0\naF0.0\naF0.0\naF0.0\naF0.0\naF0.0\naF0.0\naF0.0\naF0.0\naF0.0\naF0.0\naF0.0\naF0.0\naF0.0\naF0.0\naF0.0\naF0.0\naF0.0\naF0.0\naF0.0\naF0.0\naF0.0\naF0.81\naF0.0\naF0.0\naF0.0\naF0.0\naF0.0\naF0.0\naF0.0\naF0.0\naF0.0\naF0.0\naF0.0\naF0.0\naF0.0\naF0.0\naF0.0\naF0.0\naF0.0\naF0.0\naF0.0\naF0.0\naF0.0\naF0.0\naF0.0\naF0.0\naF0.0\naF0.0\naF0.0\naF0.0\naF0.0\naF0.0\naF0.0\naF0.0\naF0.0\naF0.0\naF0.0\naF0.0\naF0.0\naF0.0\naF0.0\naF0.0\naF0.0\naF0.0\naF0.0\naF0.0\naF0.0\naF0.0\naF0.0\naF0.0\naF0.0\naF0.0\naF0.0\naF0.0\naF0.0\naF0.0\naF0.0\naF0.0\naF0.0\naF0.0\naF0.0\naF0.0\naa(lp44\nF1.182737129779352e-06\naF1.184218744128038e-06\naF0.0\naF0.0\naF0.0\naF0.0\naF0.0\naF0.0\naF0.0\naF0.0\naF0.0\naF0.0\naF0.0\naF0.0\naF0.0\naF0.0\naF0.0\naF0.0\naF0.0\naF0.0\naF0.0\naF0.0\naF0.0\naF0.0\naF0.0\naF0.0\naF0.0\naF0.0\naF0.0\naF0.0\naF0.25\naF0.0\naF0.0\naF0.0\naF0.0\naF0.0\naF0.0\naF0.0\naF0.0\naF0.0\naF0.0\naF0.0\naF0.0\naF0.0\naF0.0\naF0.0\naF0.0\naF0.0\naF0.0\naF0.0\naF0.0\naF0.0\naF0.0\naF0.0\naF0.0\naF0.0\naF0.0\naF0.0\naF0.0\naF0.0\naF0.0\naF0.0\naF0.0\naF0.0\naF0.0\naF0.0\naF0.0\naF0.0\naF0.0\naF0.0\naF0.0\naF0.0\naF0.0\naF0.0\naF0.0\naF0.0\naF0.0\naF0.0\naF0.0\naF0.0\naF0.0\naF0.0\naF0.0\naF0.0\naF0.0\naF0.0\naF0.0\naF0.0\naF0.0\naF0.0\naa(lp45\nF2.8287183917275615e-06\naF2.8435467519829985e-06\naF0.0\naF0.0\naF0.0\naF0.0\naF0.0\naF0.0\naF0.0\naF0.0\naF0.0\naF0.0\naF0.0\naF0.0\naF0.0\naF0.0\naF0.0\naF0.0\naF0.0\naF0.0\naF0.0\naF0.0\naF0.0\naF0.0\naF0.0\naF0.0\naF0.0\naF0.0\naF0.0\naF0.0\naF0.0\naF0.25\naF0.0\naF0.0\naF0.0\naF0.0\naF0.0\naF0.0\naF0.0\naF0.0\naF0.0\naF0.0\naF0.0\naF0.0\naF0.0\naF0.0\naF0.0\naF0.0\naF0.0\naF0.0\naF0.0\naF0.0\naF0.0\naF0.0\naF0.0\naF0.0\naF0.0\naF0.0\naF0.0\naF0.0\naF0.0\naF0.0\naF0.0\naF0.0\naF0.0\naF0.0\naF0.0\naF0.0\naF0.0\naF0.0\naF0.0\naF0.0\naF0.0\naF0.0\naF0.0\naF0.0\naF0.0\naF0.0\naF0.0\naF0.0\naF0.0\naF0.0\naF0.0\naF0.0\naF0.0\naF0.0\naF0.0\naF0.0\naF0.0\naF0.0\naa(lp46\nF-2.281330039804683e-06\naF-2.2217709984010554e-06\naF0.0\naF0.0\naF0.0\naF0.0\naF0.0\naF0.0\naF0.0\naF0.0\naF0.0\naF0.0\naF0.0\naF0.0\naF0.0\naF0.0\naF0.0\naF0.0\naF0.0\naF0.0\naF0.0\naF0.0\naF0.0\naF0.0\naF0.0\naF0.0\naF0.0\naF0.0\naF0.0\naF0.0\naF0.0\naF0.0\naF0.25\naF0.0\naF0.0\naF0.0\naF0.0\naF0.0\naF0.0\naF0.0\naF0.0\naF0.0\naF0.0\naF0.0\naF0.0\naF0.0\naF0.0\naF0.0\naF0.0\naF0.0\naF0.0\naF0.0\naF0.0\naF0.0\naF0.0\naF0.0\naF0.0\naF0.0\naF0.0\naF0.0\naF0.0\naF0.0\naF0.0\naF0.0\naF0.0\naF0.0\naF0.0\naF0.0\naF0.0\naF0.0\naF0.0\naF0.0\naF0.0\naF0.0\naF0.0\naF0.0\naF0.0\naF0.0\naF0.0\naF0.0\naF0.0\naF0.0\naF0.0\naF0.0\naF0.0\naF0.0\naF0.0\naF0.0\naF0.0\naF0.0\naa(lp47\nF2.429645184925233e-07\naF2.391994112937539e-07\naF0.0\naF0.0\naF0.0\naF0.0\naF0.0\naF0.0\naF0.0\naF0.0\naF0.0\naF0.0\naF0.0\naF0.0\naF0.0\naF0.0\naF0.0\naF0.0\naF0.0\naF0.0\naF0.0\naF0.0\naF0.0\naF0.0\naF0.0\naF0.0\naF0.0\naF0.0\naF0.0\naF0.0\naF0.0\naF0.0\naF0.0\naF0.25\naF0.0\naF0.0\naF0.0\naF0.0\naF0.0\naF0.0\naF0.0\naF0.0\naF0.0\naF0.0\naF0.0\naF0.0\naF0.0\naF0.0\naF0.0\naF0.0\naF0.0\naF0.0\naF0.0\naF0.0\naF0.0\naF0.0\naF0.0\naF0.0\naF0.0\naF0.0\naF0.0\naF0.0\naF0.0\naF0.0\naF0.0\naF0.0\naF0.0\naF0.0\naF0.0\naF0.0\naF0.0\naF0.0\naF0.0\naF0.0\naF0.0\naF0.0\naF0.0\naF0.0\naF0.0\naF0.0\naF0.0\naF0.0\naF0.0\naF0.0\naF0.0\naF0.0\naF0.0\naF0.0\naF0.0\naF0.0\naa(lp48\nF2.4151728009458525e-07\naF2.377904809993402e-07\naF0.0\naF0.0\naF0.0\naF0.0\naF0.0\naF0.0\naF0.0\naF0.0\naF0.0\naF0.0\naF0.0\naF0.0\naF0.0\naF0.0\naF0.0\naF0.0\naF0.0\naF0.0\naF0.0\naF0.0\naF0.0\naF0.0\naF0.0\naF0.0\naF0.0\naF0.0\naF0.0\naF0.0\naF0.0\naF0.0\naF0.0\naF0.0\naF0.25\naF0.0\naF0.0\naF0.0\naF0.0\naF0.0\naF0.0\naF0.0\naF0.0\naF0.0\naF0.0\naF0.0\naF0.0\naF0.0\naF0.0\naF0.0\naF0.0\naF0.0\naF0.0\naF0.0\naF0.0\naF0.0\naF0.0\naF0.0\naF0.0\naF0.0\naF0.0\naF0.0\naF0.0\naF0.0\naF0.0\naF0.0\naF0.0\naF0.0\naF0.0\naF0.0\naF0.0\naF0.0\naF0.0\naF0.0\naF0.0\naF0.0\naF0.0\naF0.0\naF0.0\naF0.0\naF0.0\naF0.0\naF0.0\naF0.0\naF0.0\naF0.0\naF0.0\naF0.0\naF0.0\naF0.0\naa(lp49\nF2.3814190511745257e-07\naF2.3448171162467037e-07\naF0.0\naF0.0\naF0.0\naF0.0\naF0.0\naF0.0\naF0.0\naF0.0\naF0.0\naF0.0\naF0.0\naF0.0\naF0.0\naF0.0\naF0.0\naF0.0\naF0.0\naF0.0\naF0.0\naF0.0\naF0.0\naF0.0\naF0.0\naF0.0\naF0.0\naF0.0\naF0.0\naF0.0\naF0.0\naF0.0\naF0.0\naF0.0\naF0.0\naF0.25\naF0.0\naF0.0\naF0.0\naF0.0\naF0.0\naF0.0\naF0.0\naF0.0\naF0.0\naF0.0\naF0.0\naF0.0\naF0.0\naF0.0\naF0.0\naF0.0\naF0.0\naF0.0\naF0.0\naF0.0\naF0.0\naF0.0\naF0.0\naF0.0\naF0.0\naF0.0\naF0.0\naF0.0\naF0.0\naF0.0\naF0.0\naF0.0\naF0.0\naF0.0\naF0.0\naF0.0\naF0.0\naF0.0\naF0.0\naF0.0\naF0.0\naF0.0\naF0.0\naF0.0\naF0.0\naF0.0\naF0.0\naF0.0\naF0.0\naF0.0\naF0.0\naF0.0\naF0.0\naF0.0\naa(lp50\nF9.022271463901228e-08\naF8.910806490361685e-08\naF0.0\naF0.0\naF0.0\naF0.0\naF0.0\naF0.0\naF0.0\naF0.0\naF0.0\naF0.0\naF0.0\naF0.0\naF0.0\naF0.0\naF0.0\naF0.0\naF0.0\naF0.0\naF0.0\naF0.0\naF0.0\naF0.0\naF0.0\naF0.0\naF0.0\naF0.0\naF0.0\naF0.0\naF0.0\naF0.0\naF0.0\naF0.0\naF0.0\naF0.0\naF0.25\naF0.0\naF0.0\naF0.0\naF0.0\naF0.0\naF0.0\naF0.0\naF0.0\naF0.0\naF0.0\naF0.0\naF0.0\naF0.0\naF0.0\naF0.0\naF0.0\naF0.0\naF0.0\naF0.0\naF0.0\naF0.0\naF0.0\naF0.0\naF0.0\naF0.0\naF0.0\naF0.0\naF0.0\naF0.0\naF0.0\naF0.0\naF0.0\naF0.0\naF0.0\naF0.0\naF0.0\naF0.0\naF0.0\naF0.0\naF0.0\naF0.0\naF0.0\naF0.0\naF0.0\naF0.0\naF0.0\naF0.0\naF0.0\naF0.0\naF0.0\naF0.0\naF0.0\naF0.0\naa(lp51\nF-5.747066933504411e-11\naF-5.5992542631247503e-11\naF0.0\naF0.0\naF0.0\naF0.0\naF0.0\naF0.0\naF0.0\naF0.0\naF0.0\naF0.0\naF0.0\naF0.0\naF0.0\naF0.0\naF0.0\naF0.0\naF0.0\naF0.0\naF0.0\naF0.0\naF0.0\naF0.0\naF0.0\naF0.0\naF0.0\naF0.0\naF0.0\naF0.0\naF0.0\naF0.0\naF0.0\naF0.0\naF0.0\naF0.0\naF0.0\naF0.25\naF0.0\naF0.0\naF0.0\naF0.0\naF0.0\naF0.0\naF0.0\naF0.0\naF0.0\naF0.0\naF0.0\naF0.0\naF0.0\naF0.0\naF0.0\naF0.0\naF0.0\naF0.0\naF0.0\naF0.0\naF0.0\naF0.0\naF0.0\naF0.0\naF0.0\naF0.0\naF0.0\naF0.0\naF0.0\naF0.0\naF0.0\naF0.0\naF0.0\naF0.0\naF0.0\naF0.0\naF0.0\naF0.0\naF0.0\naF0.0\naF0.0\naF0.0\naF0.0\naF0.0\naF0.0\naF0.0\naF0.0\naF0.0\naF0.0\naF0.0\naF0.0\naF0.0\naa(lp52\nF5.480037774164202e-11\naF5.473190907727315e-11\naF0.0\naF0.0\naF0.0\naF0.0\naF0.0\naF0.0\naF0.0\naF0.0\naF0.0\naF0.0\naF0.0\naF0.0\naF0.0\naF0.0\naF0.0\naF0.0\naF0.0\naF0.0\naF0.0\naF0.0\naF0.0\naF0.0\naF0.0\naF0.0\naF0.0\naF0.0\naF0.0\naF0.0\naF0.0\naF0.0\naF0.0\naF0.0\naF0.0\naF0.0\naF0.0\naF0.0\naF2.312356596828769e-12\naF1.607013190334026e-12\naF1.1110611989160042e-12\naF7.162788930286297e-13\naF5.318899909454276e-13\naF3.946692078613252e-13\naF3.28713000845409e-13\naF2.1443719867026568e-13\naF1.3453341357000357e-13\naF7.675872298265756e-14\naF5.4313761740383846e-14\naF3.916204102915434e-14\naF3.4806576646987954e-14\naF-1.2030787473824815e-14\naF-8.011705019261009e-15\naF-8.591344053553338e-15\naF2.9807831198125052e-15\naF1.0694831077772002e-14\naF4.707282421309472e-14\naF9.825510958822966e-14\naF1.7649345802914957e-13\naF2.2863806209821925e-13\naF3.55365791496959e-13\naF4.564970883216565e-13\naF7.360137462940789e-13\naF1.1132165197502502e-12\naF2.3122496499710674e-12\naF1.6065817275380583e-12\naF1.1106617046382586e-12\naF7.158079537143258e-13\naF5.315275720961184e-13\naF3.943930191528112e-13\naF3.2846451465027925e-13\naF2.141924026841248e-13\naF1.3433059520129142e-13\naF7.657012221873072e-14\naF5.414920876172252e-14\naF3.901105845011025e-14\naF3.467900293052204e-14\naF-1.2037602677625757e-14\naF-8.033555870525041e-15\naF-8.639397925217822e-15\naF2.8895585495683856e-15\naF1.05503686188011e-14\naF4.6910969209064556e-14\naF9.804215704785844e-14\naF1.7628842024502237e-13\naF2.284428066184014e-13\naF3.551699368792637e-13\naF4.560337558935571e-13\naF7.358766122582525e-13\naF1.1134043413089847e-12\naa(lp53\nF4.107010315376039e-11\naF4.10284198423696e-11\naF0.0\naF0.0\naF0.0\naF0.0\naF0.0\naF0.0\naF0.0\naF0.0\naF0.0\naF0.0\naF0.0\naF0.0\naF0.0\naF0.0\naF0.0\naF0.0\naF0.0\naF0.0\naF0.0\naF0.0\naF0.0\naF0.0\naF0.0\naF0.0\naF0.0\naF0.0\naF0.0\naF0.0\naF0.0\naF0.0\naF0.0\naF0.0\naF0.0\naF0.0\naF0.0\naF0.0\naF1.607013190334026e-12\naF1.298115849445619e-12\naF9.457729288102778e-13\naF6.395413962168562e-13\naF4.624382689204553e-13\naF3.36960635952358e-13\naF2.7839984846321254e-13\naF2.0601373858596865e-13\naF1.3819989845510124e-13\naF8.698272995319145e-14\naF5.915189716918917e-14\naF4.125406025965725e-14\naF3.45442184136202e-14\naF4.0381429170419585e-16\naF8.11975607205245e-15\naF1.2757949420232762e-14\naF2.1468296719114295e-14\naF3.176336137242581e-14\naF5.991877417236499e-14\naF1.1645916374006126e-13\naF1.9575119710063859e-13\naF2.58423444352905e-13\naF3.4272658224897073e-13\naF4.35569989754181e-13\naF6.113620827936698e-13\naF9.555198679892851e-13\naF1.6065464459470194e-12\naF1.2976107874648864e-12\naF9.45352966040951e-13\naF6.390849188280915e-13\naF4.620796890422472e-13\naF3.36683346178907e-13\naF2.7815603907010077e-13\naF2.0577739006736063e-13\naF1.3799514242152024e-13\naF8.679142300330678e-14\naF5.898891208924977e-14\naF4.111070645262828e-14\naF3.442620520576854e-14\naF3.82525602003501e-16\naF8.081869058076604e-15\naF1.2692712500285561e-14\naF2.1370525796561306e-14\naF3.1613928435495614e-14\naF5.974973979514765e-14\naF1.1624534390556685e-13\naF1.9555151570557473e-13\naF2.581795520182047e-13\naF3.424153412329887e-13\naF4.349808548788304e-13\naF6.109319800478977e-13\naF9.552927676327591e-13\naa(lp54\nF2.269944185314961e-11\naF2.2663158856803614e-11\naF0.0\naF0.0\naF0.0\naF0.0\naF0.0\naF0.0\naF0.0\naF0.0\naF0.0\naF0.0\naF0.0\naF0.0\naF0.0\naF0.0\naF0.0\naF0.0\naF0.0\naF0.0\naF0.0\naF0.0\naF0.0\naF0.0\naF0.0\naF0.0\naF0.0\naF0.0\naF0.0\naF0.0\naF0.0\naF0.0\naF0.0\naF0.0\naF0.0\naF0.0\naF0.0\naF0.0\naF1.1110611989160042e-12\naF9.457729288102778e-13\naF7.73182990865832e-13\naF5.383033754759934e-13\naF3.946437277686109e-13\naF2.778121111252254e-13\naF2.266521470454734e-13\naF1.7282413025590642e-13\naF1.2850861595887995e-13\naF8.5222047955307e-14\naF5.885711564251524e-14\naF3.9852560484802694e-14\naF3.271901542592758e-14\naF4.757984480596341e-15\naF1.3037543283243317e-14\naF2.019095716770978e-14\naF2.877816884143283e-14\naF3.3840928988154207e-14\naF5.178089958021272e-14\naF8.903661689775963e-14\naF1.529042418784102e-13\naF2.0693086379810876e-13\naF2.6408945424371223e-13\naF2.9669908266568035e-13\naF3.92421036532646e-13\naF6.129861172057071e-13\naF1.1106711397963758e-12\naF9.454386497648516e-13\naF7.72932209154657e-13\naF5.379911993526486e-13\naF3.943697629101038e-13\naF2.7757807517478034e-13\naF2.264454205521842e-13\naF1.7262250424446474e-13\naF1.2833383787636893e-13\naF8.506179932578492e-14\naF5.872137547270315e-14\naF3.9736580980990364e-14\naF3.26255486531882e-14\naF4.750284118400399e-15\naF1.3021694574395271e-14\naF2.015440110617777e-14\naF2.872268716104365e-14\naF3.374298297197998e-14\naF5.1662613342630116e-14\naF8.88932459967086e-14\naF1.527894366915933e-13\naF2.0678338354631312e-13\naF2.6388556445817906e-13\naF2.962558002328098e-13\naF3.9203079800998016e-13\naF6.126845621267296e-13\naa(lp55\nF1.2566494436365891e-11\naF1.255679059422752e-11\naF0.0\naF0.0\naF0.0\naF0.0\naF0.0\naF0.0\naF0.0\naF0.0\naF0.0\naF0.0\naF0.0\naF0.0\naF0.0\naF0.0\naF0.0\naF0.0\naF0.0\naF0.0\naF0.0\naF0.0\naF0.0\naF0.0\naF0.0\naF0.0\naF0.0\naF0.0\naF0.0\naF0.0\naF0.0\naF0.0\naF0.0\naF0.0\naF0.0\naF0.0\naF0.0\naF0.0\naF7.162788930286297e-13\naF6.395413962168562e-13\naF5.383033754759934e-13\naF4.0630605537318245e-13\naF3.046656805945544e-13\naF2.12563265387917e-13\naF1.6569980276142436e-13\naF1.2893281082332532e-13\naF9.789447950819329e-14\naF7.009465010635408e-14\naF4.982555673286011e-14\naF3.363474423250719e-14\naF2.6202241035580137e-14\naF5.538225880681248e-15\naF1.1478810346839399e-14\naF1.7880279066149858e-14\naF2.5189084714021825e-14\naF3.0282328886618936e-14\naF3.908360314316356e-14\naF6.401103641500003e-14\naF1.0744532527403026e-13\naF1.498444095771019e-13\naF1.9072020891445456e-13\naF2.1916828420274573e-13\naF2.5625256627848754e-13\naF3.9543742414464573e-13\naF7.158622238322334e-13\naF6.392246379731148e-13\naF5.380868181854731e-13\naF4.0607614968579756e-13\naF3.0446594543767655e-13\naF2.1240355962892743e-13\naF1.6554928870842366e-13\naF1.2878216592411785e-13\naF9.776102751365473e-14\naF6.997419425829045e-14\naF4.972386082817319e-14\naF3.3550115756321924e-14\naF2.613457945723397e-14\naF5.528486082022009e-15\naF1.1464966422660272e-14\naF1.7851940859497867e-14\naF2.5148874626653533e-14\naF3.0214941264863354e-14\naF3.900603801095504e-14\naF6.391412524659482e-14\naF1.0737011205642665e-13\naF1.4974584741979938e-13\naF1.905737160614414e-13\naF2.1885431737568747e-13\naF2.5592629512050083e-13\naF3.9508695545031844e-13\naa(lp56\nF2.645383236687269e-12\naF2.65406469430212e-12\naF0.0\naF0.0\naF0.0\naF0.0\naF0.0\naF0.0\naF0.0\naF0.0\naF0.0\naF0.0\naF0.0\naF0.0\naF0.0\naF0.0\naF0.0\naF0.0\naF0.0\naF0.0\naF0.0\naF0.0\naF0.0\naF0.0\naF0.0\naF0.0\naF0.0\naF0.0\naF0.0\naF0.0\naF0.0\naF0.0\naF0.0\naF0.0\naF0.0\naF0.0\naF0.0\naF0.0\naF5.318899909454276e-13\naF4.624382689204553e-13\naF3.946437277686109e-13\naF3.046656805945544e-13\naF2.5190668122039915e-13\naF1.772741117809629e-13\naF1.3862463832142195e-13\naF1.0578167240165072e-13\naF8.064222787897393e-14\naF5.842472012327468e-14\naF4.5027849396387434e-14\naF3.078640743778463e-14\naF2.3862506093695867e-14\naF5.26366065566833e-15\naF9.588995251851467e-15\naF1.3502613411103637e-14\naF1.958919533156315e-14\naF2.4534778618150022e-14\naF2.8291992327231415e-14\naF3.880440109013309e-14\naF6.652356994907525e-14\naF8.731873595637758e-14\naF1.185529576301146e-13\naF1.4036922502372966e-13\naF1.5343501684858685e-13\naF2.0584082255064634e-13\naF5.316123012039895e-13\naF4.622438542099998e-13\naF3.945506411758483e-13\naF3.0456068251268313e-13\naF2.518175124029709e-13\naF1.771976784548225e-13\naF1.3854524885800475e-13\naF1.0569057118604374e-13\naF8.055721027947268e-14\naF5.834569886408188e-14\naF4.495942154649465e-14\naF3.072798572127561e-14\naF2.3816346901253122e-14\naF5.251722064350275e-15\naF9.575660364502591e-15\naF1.348074865648306e-14\naF1.9559776078454315e-14\naF2.448707762879744e-14\naF2.8240884944661423e-14\naF3.873915395884502e-14\naF6.647697893601523e-14\naF8.725897203468044e-14\naF1.1846653005737736e-13\naF1.4017719332468334e-13\naF1.5322600449276994e-13\naF2.0555429181021728e-13\naa(lp57\nF-2.2099719422469367e-12\naF-2.221525521607796e-12\naF0.0\naF0.0\naF0.0\naF0.0\naF0.0\naF0.0\naF0.0\naF0.0\naF0.0\naF0.0\naF0.0\naF0.0\naF0.0\naF0.0\naF0.0\naF0.0\naF0.0\naF0.0\naF0.0\naF0.0\naF0.0\naF0.0\naF0.0\naF0.0\naF0.0\naF0.0\naF0.0\naF0.0\naF0.0\naF0.0\naF0.0\naF0.0\naF0.0\naF0.0\naF0.0\naF0.0\naF3.946692078613252e-13\naF3.36960635952358e-13\naF2.778121111252254e-13\naF2.12563265387917e-13\naF1.772741117809629e-13\naF1.365746925149469e-13\naF1.0814529312088044e-13\naF8.250186646106158e-14\naF6.17245834046586e-14\naF4.46502486726797e-14\naF3.452526005737263e-14\naF2.5386802959305586e-14\naF1.9590055335636067e-14\naF4.729834096777404e-15\naF7.0345622304643465e-15\naF9.755500943859123e-15\naF1.2910953967128072e-14\naF1.6674377754799858e-14\naF2.0102596459930896e-14\naF2.793647963587501e-14\naF4.223468053558638e-14\naF5.665496045662526e-14\naF7.263509215247059e-14\naF9.185860542798744e-14\naF1.0867461497776346e-13\naF1.4335589713522134e-13\naF3.9444362763867763e-13\naF3.367909763929065e-13\naF2.7773007388620536e-13\naF2.1247272965427314e-13\naF1.7720274778531187e-13\naF1.3651805868748886e-13\naF1.0808453378855619e-13\naF8.243569096372426e-14\naF6.166223610747455e-14\naF4.4589235148833353e-14\naF3.4472407524764725e-14\naF2.53412626158315e-14\naF1.955314239291658e-14\naF4.721212604591861e-15\naF7.0252395193549364e-15\naF9.739351315610344e-15\naF1.2888519615141973e-14\naF1.6638333620795815e-14\naF2.0067661867311297e-14\naF2.788951069098994e-14\naF4.2199172077024824e-14\naF5.661468417624754e-14\naF7.257803377373412e-14\naF9.172277142630371e-14\naF1.0854639207775276e-13\naF1.4317659025577321e-13\naa(lp58\nF-3.976564702387366e-12\naF-3.970819240277618e-12\naF0.0\naF0.0\naF0.0\naF0.0\naF0.0\naF0.0\naF0.0\naF0.0\naF0.0\naF0.0\naF0.0\naF0.0\naF0.0\naF0.0\naF0.0\naF0.0\naF0.0\naF0.0\naF0.0\naF0.0\naF0.0\naF0.0\naF0.0\naF0.0\naF0.0\naF0.0\naF0.0\naF0.0\naF0.0\naF0.0\naF0.0\naF0.0\naF0.0\naF0.0\naF0.0\naF0.0\naF3.28713000845409e-13\naF2.7839984846321254e-13\naF2.266521470454734e-13\naF1.6569980276142436e-13\naF1.3862463832142195e-13\naF1.0814529312088044e-13\naF9.184288674046577e-14\naF7.001764970522045e-14\naF5.189434100438777e-14\naF3.61989712912996e-14\naF2.7849600783330585e-14\naF2.0611453291468637e-14\naF1.6704710500520505e-14\naF4.5719188173896014e-15\naF6.6042291623740436e-15\naF8.1026975049429e-15\naF1.0486218132703892e-14\naF1.2172290508366512e-14\naF1.6055876282844356e-14\naF2.352473569824366e-14\naF3.574523640053694e-14\naF4.200210814641862e-14\naF5.3059136301078995e-14\naF5.6832262013989254e-14\naF7.252749594826753e-14\naF1.0416528642919027e-13\naF3.2858350199782576e-13\naF2.782998529665842e-13\naF2.2661491288508064e-13\naF1.656423402435097e-13\naF1.3858182660781408e-13\naF1.0810932860245926e-13\naF9.180359681850792e-14\naF6.997280876650729e-14\naF5.1852322054630675e-14\naF3.615514824204092e-14\naF2.781169757636909e-14\naF2.057811750510523e-14\naF1.667722125596157e-14\naF4.562250374736081e-15\naF6.594139877550995e-15\naF8.087664562613778e-15\naF1.0465885242422309e-14\naF1.2140813480839829e-14\naF1.6026306673018478e-14\naF2.34841252394492e-14\naF3.5712697633420894e-14\naF4.196442353596129e-14\naF5.3009361665078356e-14\naF5.671851361432508e-14\naF7.243583157211106e-14\naF1.0405059870531431e-13\naa(lp59\nF-4.685164157101639e-12\naF-4.6759834922211645e-12\naF0.0\naF0.0\naF0.0\naF0.0\naF0.0\naF0.0\naF0.0\naF0.0\naF0.0\naF0.0\naF0.0\naF0.0\naF0.0\naF0.0\naF0.0\naF0.0\naF0.0\naF0.0\naF0.0\naF0.0\naF0.0\naF0.0\naF0.0\naF0.0\naF0.0\naF0.0\naF0.0\naF0.0\naF0.0\naF0.0\naF0.0\naF0.0\naF0.0\naF0.0\naF0.0\naF0.0\naF2.1443719867026568e-13\naF2.0601373858596865e-13\naF1.7282413025590642e-13\naF1.2893281082332532e-13\naF1.0578167240165072e-13\naF8.250186646106158e-14\naF7.001764970522045e-14\naF5.705270852999268e-14\naF4.320848005646246e-14\naF3.0857711995892347e-14\naF2.3255819694181774e-14\naF1.715499138022862e-14\naF1.3704959794726687e-14\naF5.3066398517309665e-15\naF7.575741204948409e-15\naF9.45756487400547e-15\naF1.1218986917369372e-14\naF1.275187799883215e-14\naF1.5421575206799387e-14\naF2.2877332787183446e-14\naF3.442206294610844e-14\naF4.1408313870756574e-14\naF4.638280923768059e-14\naF4.8366349963695006e-14\naF5.171072030729393e-14\naF7.70119000522743e-14\naF2.143094944631197e-13\naF2.0593327354250345e-13\naF1.727921494026102e-13\naF1.288849923780293e-13\naF1.0574572829992868e-13\naF8.246872218205459e-14\naF6.998177335757723e-14\naF5.70110591149337e-14\naF4.316854874053197e-14\naF3.081654487265636e-14\naF2.3220801610776082e-14\naF1.7124944959543382e-14\naF1.368052893131289e-14\naF5.294616348424197e-15\naF7.562378720279775e-15\naF9.43928212506735e-15\naF1.1196586329665679e-14\naF1.2720175475137772e-14\naF1.538997261696264e-14\naF2.283550201899496e-14\naF3.438761435499323e-14\naF4.1365970949756014e-14\naF4.632727398979457e-14\naF4.82582837524859e-14\naF5.161050689343438e-14\naF7.688875032492886e-14\naa(lp60\nF-5.34081299200854e-12\naF-5.335232346402599e-12\naF0.0\naF0.0\naF0.0\naF0.0\naF0.0\naF0.0\naF0.0\naF0.0\naF0.0\naF0.0\naF0.0\naF0.0\naF0.0\naF0.0\naF0.0\naF0.0\naF0.0\naF0.0\naF0.0\naF0.0\naF0.0\naF0.0\naF0.0\naF0.0\naF0.0\naF0.0\naF0.0\naF0.0\naF0.0\naF0.0\naF0.0\naF0.0\naF0.0\naF0.0\naF0.0\naF0.0\naF1.3453341357000357e-13\naF1.3819989845510124e-13\naF1.2850861595887995e-13\naF9.789447950819329e-14\naF8.064222787897393e-14\naF6.17245834046586e-14\naF5.189434100438777e-14\naF4.320848005646246e-14\naF3.474150759363021e-14\naF2.546821333822563e-14\naF1.9233052132958653e-14\naF1.4065546051401139e-14\naF1.1159293115031935e-14\naF4.752129717041798e-15\naF6.812282713689487e-15\naF8.737937282846604e-15\naF1.026872565263948e-14\naF1.0837007622758508e-14\naF1.2168405457595358e-14\naF1.6641662414028288e-14\naF2.547379756247217e-14\naF3.0874493463600305e-14\naF3.233595529653445e-14\naF2.638584259774591e-14\naF2.1625244918453905e-14\naF3.202264629737549e-14\naF1.3443982320819985e-13\naF1.3815250246735113e-13\naF1.2849579316735986e-13\naF9.786413544615377e-14\naF8.061507578368617e-14\naF6.169653164936303e-14\naF5.186383214722213e-14\naF4.3172797246299163e-14\naF3.470693074505668e-14\naF2.5433425111317646e-14\naF1.920361747592156e-14\naF1.4040736082907613e-14\naF1.1139390145473286e-14\naF4.743399510926115e-15\naF6.803024263448922e-15\naF8.724853766931708e-15\naF1.0253848403377243e-14\naF1.0815055908901724e-14\naF1.214608683922669e-14\naF1.6612656467997074e-14\naF2.5453288662649575e-14\naF3.084875989382238e-14\naF3.230228266344685e-14\naF2.631178866759051e-14\naF2.1549885204302443e-14\naF3.192140320724665e-14\naa(lp61\nF-5.178412294600654e-12\naF-5.175378059323913e-12\naF0.0\naF0.0\naF0.0\naF0.0\naF0.0\naF0.0\naF0.0\naF0.0\naF0.0\naF0.0\naF0.0\naF0.0\naF0.0\naF0.0\naF0.0\naF0.0\naF0.0\naF0.0\naF0.0\naF0.0\naF0.0\naF0.0\naF0.0\naF0.0\naF0.0\naF0.0\naF0.0\naF0.0\naF0.0\naF0.0\naF0.0\naF0.0\naF0.0\naF0.0\naF0.0\naF0.0\naF7.675872298265756e-14\naF8.698272995319145e-14\naF8.5222047955307e-14\naF7.009465010635408e-14\naF5.842472012327468e-14\naF4.46502486726797e-14\naF3.61989712912996e-14\naF3.0857711995892347e-14\naF2.546821333822563e-14\naF1.9835639868191083e-14\naF1.5210734364646267e-14\naF1.117583171192857e-14\naF8.632055887168284e-15\naF3.957786090353705e-15\naF5.5351663949408104e-15\naF7.197106484312263e-15\naF8.512472988980498e-15\naF8.986202342029036e-15\naF9.215352966472559e-15\naF1.2066160324231688e-14\naF1.8157061305014572e-14\naF2.281270668095687e-14\naF2.3486701038695458e-14\naF1.835235892905043e-14\naF8.280423364095397e-15\naF1.099078138229409e-14\naF7.667309227322312e-14\naF8.693765510682853e-14\naF8.520693038382606e-14\naF7.007182655241458e-14\naF5.840442199793616e-14\naF4.463026870777003e-14\naF3.61753550536289e-14\naF3.082926311804366e-14\naF2.54401899335087e-14\naF1.9807333364037188e-14\naF1.5186679165432694e-14\naF1.1155891425924599e-14\naF8.616152629416046e-15\naF3.95055816719882e-15\naF5.5277654915872334e-15\naF7.187008997730857e-15\naF8.501887895549252e-15\naF8.971477875294095e-15\naF9.201627413437663e-15\naF1.2047396468978094e-14\naF1.8144418990636055e-14\naF2.279665654054892e-14\naF2.3466647316810532e-14\naF1.8306430053284792e-14\naF8.226521833097674e-15\naF1.090706396054326e-14\naa(lp62\nF-5.2255978794921564e-12\naF-5.218334832308285e-12\naF0.0\naF0.0\naF0.0\naF0.0\naF0.0\naF0.0\naF0.0\naF0.0\naF0.0\naF0.0\naF0.0\naF0.0\naF0.0\naF0.0\naF0.0\naF0.0\naF0.0\naF0.0\naF0.0\naF0.0\naF0.0\naF0.0\naF0.0\naF0.0\naF0.0\naF0.0\naF0.0\naF0.0\naF0.0\naF0.0\naF0.0\naF0.0\naF0.0\naF0.0\naF0.0\naF0.0\naF5.4313761740383846e-14\naF5.915189716918917e-14\naF5.885711564251524e-14\naF4.982555673286011e-14\naF4.5027849396387434e-14\naF3.452526005737263e-14\naF2.7849600783330585e-14\naF2.3255819694181774e-14\naF1.9233052132958653e-14\naF1.5210734364646267e-14\naF1.2331273589080664e-14\naF9.1639886893276e-15\naF7.0868155391434985e-15\naF3.1727675722621093e-15\naF4.371373907276618e-15\naF5.4818460326217844e-15\naF6.57429665807372e-15\naF7.124598484784453e-15\naF6.8886677856789706e-15\naF7.783548070522309e-15\naF1.1670729657967016e-14\naF1.3300381314819274e-14\naF1.3700385545188104e-14\naF9.69201883664279e-15\naF-4.25823405239972e-16\naF-6.705410867914212e-15\naF5.426052449002189e-14\naF5.912481197795459e-14\naF5.885700006957422e-14\naF4.9819727295743854e-14\naF4.502328043163006e-14\naF3.451770017563368e-14\naF2.7837574451769018e-14\naF2.3237637660554582e-14\naF1.9213927973202235e-14\naF1.5190341808151206e-14\naF1.2313407910308008e-14\naF9.148651101494545e-15\naF7.074629826507951e-15\naF3.166426587284737e-15\naF4.365128300585098e-15\naF5.474042444148562e-15\naF6.566517406152085e-15\naF7.114211964519288e-15\naF6.880047206668347e-15\naF7.771211646282854e-15\naF1.1663834235731377e-14\naF1.3292663900239457e-14\naF1.3693213282767561e-14\naF9.669677948782465e-15\naF-4.536729881869769e-16\naF-6.765222395062283e-15\naa(lp63\nF-5.157849819299186e-12\naF-5.1526340892475285e-12\naF0.0\naF0.0\naF0.0\naF0.0\naF0.0\naF0.0\naF0.0\naF0.0\naF0.0\naF0.0\naF0.0\naF0.0\naF0.0\naF0.0\naF0.0\naF0.0\naF0.0\naF0.0\naF0.0\naF0.0\naF0.0\naF0.0\naF0.0\naF0.0\naF0.0\naF0.0\naF0.0\naF0.0\naF0.0\naF0.0\naF0.0\naF0.0\naF0.0\naF0.0\naF0.0\naF0.0\naF3.916204102915434e-14\naF4.125406025965725e-14\naF3.9852560484802694e-14\naF3.363474423250719e-14\naF3.078640743778463e-14\naF2.5386802959305586e-14\naF2.0611453291468637e-14\naF1.715499138022862e-14\naF1.4065546051401139e-14\naF1.117583171192857e-14\naF9.1639886893276e-15\naF7.167474131702835e-15\naF5.5775699249201046e-15\naF2.545804969167768e-15\naF3.3221982066024192e-15\naF4.127442829574794e-15\naF4.7195704377231875e-15\naF5.085124948495505e-15\naF5.0255018593899066e-15\naF5.673637791882432e-15\naF7.623696831607355e-15\naF8.644272588935946e-15\naF7.568252977687153e-15\naF4.59835281784882e-15\naF-1.989079317109617e-15\naF-7.734986638706253e-15\naF3.9125857959778615e-14\naF4.123344349875033e-14\naF3.985354178830464e-14\naF3.3631216716005385e-14\naF3.0784567407965e-14\naF2.5382893219931396e-14\naF2.0603703991895932e-14\naF1.7142457450428785e-14\naF1.4051861928418294e-14\naF1.1160434231529092e-14\naF9.150331775835391e-15\naF7.1553815273895e-15\naF5.56769558498983e-15\naF2.541124174935544e-15\naF3.317656657219481e-15\naF4.12200159291375e-15\naF4.714413312469004e-15\naF5.078585502720219e-15\naF5.021248592121794e-15\naF5.6667006899418525e-15\naF7.621226450374954e-15\naF8.643322294168882e-15\naF7.570268849088063e-15\naF4.5904406744278995e-15\naF-1.9965744557951296e-15\naF-7.765853006112023e-15\naa(lp64\nF-4.730253740690998e-12\naF-4.723460814532661e-12\naF0.0\naF0.0\naF0.0\naF0.0\naF0.0\naF0.0\naF0.0\naF0.0\naF0.0\naF0.0\naF0.0\naF0.0\naF0.0\naF0.0\naF0.0\naF0.0\naF0.0\naF0.0\naF0.0\naF0.0\naF0.0\naF0.0\naF0.0\naF0.0\naF0.0\naF0.0\naF0.0\naF0.0\naF0.0\naF0.0\naF0.0\naF0.0\naF0.0\naF0.0\naF0.0\naF0.0\naF3.4806576646987954e-14\naF3.45442184136202e-14\naF3.271901542592758e-14\naF2.6202241035580137e-14\naF2.3862506093695867e-14\naF1.9590055335636067e-14\naF1.6704710500520505e-14\naF1.3704959794726687e-14\naF1.1159293115031935e-14\naF8.632055887168284e-15\naF7.0868155391434985e-15\naF5.5775699249201046e-15\naF4.510680694969004e-15\naF2.1790802117499576e-15\naF2.8649667314468714e-15\naF3.433471056903459e-15\naF3.936769099515189e-15\naF4.062101761633583e-15\naF4.308003589519489e-15\naF5.142004723028637e-15\naF7.063950699189814e-15\naF7.250221706316597e-15\naF6.344276166630744e-15\naF2.4698546434693815e-15\naF-1.7343766156727205e-15\naF-5.0417502770333516e-15\naF3.479428506519334e-14\naF3.453868124996559e-14\naF3.272857633877521e-14\naF2.620441660592908e-14\naF2.3865112198615344e-14\naF1.9589532123280567e-14\naF1.6701181199160443e-14\naF1.3697100510934369e-14\naF1.1150364704373095e-14\naF8.62111659415861e-15\naF7.07694326236346e-15\naF5.568477846460452e-15\naF4.503082609725776e-15\naF2.1748739611798967e-15\naF2.860809117714848e-15\naF3.4287784402072057e-15\naF3.932306259206986e-15\naF4.056483219565525e-15\naF4.3042808442498616e-15\naF5.1359952221625635e-15\naF7.061684074327939e-15\naF7.249631734142595e-15\naF6.3471178380068065e-15\naF2.4644944410304917e-15\naF-1.7363119832812058e-15\naF-5.0593496371733005e-15\naa(lp65\nF-5.516070422739284e-12\naF-5.520263692443685e-12\naF0.0\naF0.0\naF0.0\naF0.0\naF0.0\naF0.0\naF0.0\naF0.0\naF0.0\naF0.0\naF0.0\naF0.0\naF0.0\naF0.0\naF0.0\naF0.0\naF0.0\naF0.0\naF0.0\naF0.0\naF0.0\naF0.0\naF0.0\naF0.0\naF0.0\naF0.0\naF0.0\naF0.0\naF0.0\naF0.0\naF0.0\naF0.0\naF0.0\naF0.0\naF0.0\naF0.0\naF-1.2030787473824815e-14\naF4.0381429170419585e-16\naF4.757984480596341e-15\naF5.538225880681248e-15\naF5.26366065566833e-15\naF4.729834096777404e-15\naF4.5719188173896014e-15\naF5.3066398517309665e-15\naF4.752129717041798e-15\naF3.957786090353705e-15\naF3.1727675722621093e-15\naF2.545804969167768e-15\naF2.1790802117499576e-15\naF4.57539715752524e-15\naF6.004069519535167e-15\naF7.300497400377512e-15\naF8.50761165360217e-15\naF9.914176285401117e-15\naF1.2190501909223364e-14\naF1.574412480870287e-14\naF2.0522522641867288e-14\naF2.2680101938684778e-14\naF2.312332855061366e-14\naF2.2421346602975184e-14\naF2.1286287593356465e-14\naF2.220714817933562e-14\naF-1.2004690462725195e-14\naF4.305342051403926e-16\naF4.794431582463904e-15\naF5.561823668350886e-15\naF5.2861095169836526e-15\naF4.7440275825704255e-15\naF4.58145475755354e-15\naF5.310954752734912e-15\naF4.752247150076338e-15\naF3.953942739742418e-15\naF3.169142672337926e-15\naF2.5427076914899724e-15\naF2.176466129623969e-15\naF4.565704282885454e-15\naF5.992758080698087e-15\naF7.287444015850963e-15\naF8.492998444105358e-15\naF9.896930588865927e-15\naF1.2171379880217588e-14\naF1.572187940330493e-14\naF2.0500641490769326e-14\naF2.2658295903292332e-14\naF2.310087595317121e-14\naF2.2396897540792027e-14\naF2.1266884219927434e-14\naF2.218760628620444e-14\naa(lp66\nF-5.7558030099806145e-12\naF-5.761128048185077e-12\naF0.0\naF0.0\naF0.0\naF0.0\naF0.0\naF0.0\naF0.0\naF0.0\naF0.0\naF0.0\naF0.0\naF0.0\naF0.0\naF0.0\naF0.0\naF0.0\naF0.0\naF0.0\naF0.0\naF0.0\naF0.0\naF0.0\naF0.0\naF0.0\naF0.0\naF0.0\naF0.0\naF0.0\naF0.0\naF0.0\naF0.0\naF0.0\naF0.0\naF0.0\naF0.0\naF0.0\naF-8.011705019261009e-15\naF8.11975607205245e-15\naF1.3037543283243317e-14\naF1.1478810346839399e-14\naF9.588995251851467e-15\naF7.0345622304643465e-15\naF6.6042291623740436e-15\naF7.575741204948409e-15\naF6.812282713689487e-15\naF5.5351663949408104e-15\naF4.371373907276618e-15\naF3.3221982066024192e-15\naF2.8649667314468714e-15\naF6.004069519535167e-15\naF8.252666145280834e-15\naF1.0166736029986305e-14\naF1.2010478145919525e-14\naF1.3936121686886533e-14\naF1.7325565427808963e-14\naF2.275609885429803e-14\naF3.135528550220326e-14\naF3.532799724978006e-14\naF3.7408640213015656e-14\naF3.6356248839219636e-14\naF3.584749536751774e-14\naF3.971003592202697e-14\naF-7.967994982681524e-15\naF8.163315105599817e-15\naF1.3088870983159475e-14\naF1.151123819673527e-14\naF9.618749172144748e-15\naF7.052011617534347e-15\naF6.616040119411316e-15\naF7.580144564880148e-15\naF6.8111184413933686e-15\naF5.5285781167936046e-15\naF4.365242927850037e-15\naF3.316853194780296e-15\naF2.8605765355280204e-15\naF5.991120842187553e-15\naF8.23714186604782e-15\naF1.014836498725898e-14\naF1.1989476400048023e-14\naF1.3910629397533414e-14\naF1.729623126641853e-14\naF2.2722465868931983e-14\naF3.132247297120193e-14\naF3.529389707056182e-14\naF3.737239867081867e-14\naF3.631558919846448e-14\naF3.581204098711117e-14\naF3.9680797885622145e-14\naa(lp67\nF-5.7787089211416745e-12\naF-5.788729301103168e-12\naF0.0\naF0.0\naF0.0\naF0.0\naF0.0\naF0.0\naF0.0\naF0.0\naF0.0\naF0.0\naF0.0\naF0.0\naF0.0\naF0.0\naF0.0\naF0.0\naF0.0\naF0.0\naF0.0\naF0.0\naF0.0\naF0.0\naF0.0\naF0.0\naF0.0\naF0.0\naF0.0\naF0.0\naF0.0\naF0.0\naF0.0\naF0.0\naF0.0\naF0.0\naF0.0\naF0.0\naF-8.591344053553338e-15\naF1.2757949420232762e-14\naF2.019095716770978e-14\naF1.7880279066149858e-14\naF1.3502613411103637e-14\naF9.755500943859123e-15\naF8.1026975049429e-15\naF9.45756487400547e-15\naF8.737937282846604e-15\naF7.197106484312263e-15\naF5.4818460326217844e-15\naF4.127442829574794e-15\naF3.433471056903459e-15\naF7.300497400377512e-15\naF1.0166736029986305e-14\naF1.3014735226754231e-14\naF1.5483462636148398e-14\naF1.8101244841218313e-14\naF2.2423240480420145e-14\naF2.9557262055407245e-14\naF4.093943487547841e-14\naF4.8967577955522696e-14\naF5.272546909353504e-14\naF5.314674922952102e-14\naF5.291341453861646e-14\naF5.944162153550609e-14\naF-8.542445790907232e-15\naF1.280858855626157e-14\naF2.025046150862752e-14\naF1.7915938663085156e-14\naF1.3533865767650933e-14\naF9.772669565270304e-15\naF8.113158053113644e-15\naF9.460194756312064e-15\naF8.73426301973526e-15\naF7.18736338569319e-15\naF5.473039421849292e-15\naF4.120049668089735e-15\naF3.4274966939584216e-15\naF7.28605201358643e-15\naF1.0149135456300355e-14\naF1.2993322669687993e-14\naF1.545877071465418e-14\naF1.8070889883888967e-14\naF2.2387646331044445e-14\naF2.951740707748251e-14\naF4.090157541129796e-14\naF4.89288035941833e-14\naF5.268252133346917e-14\naF5.309629487081932e-14\naF5.2866503638871435e-14\naF5.940636110338777e-14\naa(lp68\nF-5.344630551414313e-12\naF-5.354736967201688e-12\naF0.0\naF0.0\naF0.0\naF0.0\naF0.0\naF0.0\naF0.0\naF0.0\naF0.0\naF0.0\naF0.0\naF0.0\naF0.0\naF0.0\naF0.0\naF0.0\naF0.0\naF0.0\naF0.0\naF0.0\naF0.0\naF0.0\naF0.0\naF0.0\naF0.0\naF0.0\naF0.0\naF0.0\naF0.0\naF0.0\naF0.0\naF0.0\naF0.0\naF0.0\naF0.0\naF0.0\naF2.9807831198125052e-15\naF2.1468296719114295e-14\naF2.877816884143283e-14\naF2.5189084714021825e-14\naF1.958919533156315e-14\naF1.2910953967128072e-14\naF1.0486218132703892e-14\naF1.1218986917369372e-14\naF1.026872565263948e-14\naF8.512472988980498e-15\naF6.57429665807372e-15\naF4.7195704377231875e-15\naF3.936769099515189e-15\naF8.50761165360217e-15\naF1.2010478145919525e-14\naF1.5483462636148398e-14\naF1.9161306476000452e-14\naF2.2559092252900413e-14\naF2.810575676057657e-14\naF3.6507968591486077e-14\naF5.117551043827504e-14\naF6.167603425700606e-14\naF7.059288817493637e-14\naF7.254816669941122e-14\naF7.412922346888454e-14\naF8.00497200493641e-14\naF3.0606150532971796e-15\naF2.154425862602491e-14\naF2.8864975347455423e-14\naF2.524387651049319e-14\naF1.9635704715488204e-14\naF1.2937400744454334e-14\naF1.0502901892085004e-14\naF1.1224427006209547e-14\naF1.0266546929182145e-14\naF8.502428341398605e-15\naF6.565018166024182e-15\naF4.711685850664565e-15\naF3.93060400455554e-15\naF8.491569409344586e-15\naF1.1991000862586202e-14\naF1.545954406777778e-14\naF1.913307455628199e-14\naF2.2523610798074834e-14\naF2.8063750217617008e-14\naF3.646035713033865e-14\naF5.113021821486835e-14\naF6.163046066105442e-14\naF7.054417907265918e-14\naF7.248980229745292e-14\naF7.407560400436376e-14\naF8.000417072522021e-14\naa(lp69\nF-4.26949287236509e-12\naF-4.287697936383788e-12\naF0.0\naF0.0\naF0.0\naF0.0\naF0.0\naF0.0\naF0.0\naF0.0\naF0.0\naF0.0\naF0.0\naF0.0\naF0.0\naF0.0\naF0.0\naF0.0\naF0.0\naF0.0\naF0.0\naF0.0\naF0.0\naF0.0\naF0.0\naF0.0\naF0.0\naF0.0\naF0.0\naF0.0\naF0.0\naF0.0\naF0.0\naF0.0\naF0.0\naF0.0\naF0.0\naF0.0\naF1.0694831077772002e-14\naF3.176336137242581e-14\naF3.3840928988154207e-14\naF3.0282328886618936e-14\naF2.4534778618150022e-14\naF1.6674377754799858e-14\naF1.2172290508366512e-14\naF1.275187799883215e-14\naF1.0837007622758508e-14\naF8.986202342029036e-15\naF7.124598484784453e-15\naF5.085124948495505e-15\naF4.062101761633583e-15\naF9.914176285401117e-15\naF1.3936121686886533e-14\naF1.8101244841218313e-14\naF2.2559092252900413e-14\naF2.8266253387554007e-14\naF3.538484293536196e-14\naF4.605892526734142e-14\naF6.339233979735523e-14\naF7.716651093487347e-14\naF8.974614951549318e-14\naF1.0302267324911825e-13\naF1.0956585845695058e-13\naF1.1998489935981422e-13\naF1.0785641268568099e-14\naF3.1846637871489577e-14\naF3.39397522369662e-14\naF3.034774757422571e-14\naF2.45938257002332e-14\naF1.6711646134473416e-14\naF1.2197671439695421e-14\naF1.2763519133869864e-14\naF1.0837452937610907e-14\naF8.976918297809082e-15\naF7.115656438625274e-15\naF5.077665921300973e-15\naF4.0564959220342185e-15\naF9.895892479606329e-15\naF1.3913431266500987e-14\naF1.8073005572865287e-14\naF2.2524787561859684e-14\naF2.8221970335096356e-14\naF3.5332364403910027e-14\naF4.600044999253985e-14\naF6.333534278496675e-14\naF7.710816992454659e-14\naF8.967751975923553e-14\naF1.0294084513709194e-13\naF1.0948622923176271e-13\naF1.1991525225180978e-13\naa(lp70\nF-3.213189752626793e-12\naF-3.2459827576837694e-12\naF0.0\naF0.0\naF0.0\naF0.0\naF0.0\naF0.0\naF0.0\naF0.0\naF0.0\naF0.0\naF0.0\naF0.0\naF0.0\naF0.0\naF0.0\naF0.0\naF0.0\naF0.0\naF0.0\naF0.0\naF0.0\naF0.0\naF0.0\naF0.0\naF0.0\naF0.0\naF0.0\naF0.0\naF0.0\naF0.0\naF0.0\naF0.0\naF0.0\naF0.0\naF0.0\naF0.0\naF4.707282421309472e-14\naF5.991877417236499e-14\naF5.178089958021272e-14\naF3.908360314316356e-14\naF2.8291992327231415e-14\naF2.0102596459930896e-14\naF1.6055876282844356e-14\naF1.5421575206799387e-14\naF1.2168405457595358e-14\naF9.215352966472559e-15\naF6.8886677856789706e-15\naF5.0255018593899066e-15\naF4.308003589519489e-15\naF1.2190501909223364e-14\naF1.7325565427808963e-14\naF2.2423240480420145e-14\naF2.810575676057657e-14\naF3.538484293536196e-14\naF4.741299050499576e-14\naF6.397004207173485e-14\naF8.833829854082906e-14\naF1.0671715253202479e-13\naF1.2435383093350937e-13\naF1.4116644594812886e-13\naF1.6409353478531764e-13\naF1.9166005218023407e-13\naF4.7209890280854345e-14\naF6.003504749382342e-14\naF5.19104213229942e-14\naF3.916888994340917e-14\naF2.8368241967688277e-14\naF2.015338597728622e-14\naF1.6092432165737147e-14\naF1.5441799988331308e-14\naF1.217359911366451e-14\naF9.207372613387871e-15\naF6.880442049285997e-15\naF5.018324587228632e-15\naF4.302586097712877e-15\naF1.2168769373358128e-14\naF1.7298025532125548e-14\naF2.2388357062358428e-14\naF2.806201133586473e-14\naF3.532667726792237e-14\naF4.734198196978049e-14\naF6.38894663918346e-14\naF8.825583087666987e-14\naF1.0663055030888116e-13\naF1.2425272528555408e-13\naF1.4104464217609524e-13\naF1.6398766079898653e-13\naF1.9159571585746058e-13\naa(lp71\nF-9.945211169928369e-13\naF-1.0457206983010834e-12\naF0.0\naF0.0\naF0.0\naF0.0\naF0.0\naF0.0\naF0.0\naF0.0\naF0.0\naF0.0\naF0.0\naF0.0\naF0.0\naF0.0\naF0.0\naF0.0\naF0.0\naF0.0\naF0.0\naF0.0\naF0.0\naF0.0\naF0.0\naF0.0\naF0.0\naF0.0\naF0.0\naF0.0\naF0.0\naF0.0\naF0.0\naF0.0\naF0.0\naF0.0\naF0.0\naF0.0\naF9.825510958822966e-14\naF1.1645916374006126e-13\naF8.903661689775963e-14\naF6.401103641500003e-14\naF3.880440109013309e-14\naF2.793647963587501e-14\naF2.352473569824366e-14\naF2.2877332787183446e-14\naF1.6641662414028288e-14\naF1.2066160324231688e-14\naF7.783548070522309e-15\naF5.673637791882432e-15\naF5.142004723028637e-15\naF1.574412480870287e-14\naF2.275609885429803e-14\naF2.9557262055407245e-14\naF3.6507968591486077e-14\naF4.605892526734142e-14\naF6.397004207173485e-14\naF9.313841927401242e-14\naF1.302461516956554e-13\naF1.5835523720399778e-13\naF1.8093310056122757e-13\naF2.032302652202537e-13\naF2.409478911787117e-13\naF3.179982094132556e-13\naF9.840323266984918e-14\naF1.1657085107368893e-13\naF8.915900179044472e-14\naF6.408445538292249e-14\naF3.887506377371579e-14\naF2.798575162148429e-14\naF2.355991319782576e-14\naF2.289464163012226e-14\naF1.664067407520792e-14\naF1.2049291052820543e-14\naF7.767964834113689e-15\naF5.66090039257038e-15\naF5.131520195795833e-15\naF1.5713914224877466e-14\naF2.2716881084883074e-14\naF2.950703513036091e-14\naF3.644465489157792e-14\naF4.597420617763821e-14\naF6.386584427328948e-14\naF9.301848906907075e-14\naF1.3011832282969251e-13\naF1.5821571646030468e-13\naF1.8076870945091746e-13\naF2.0302639310823606e-13\naF2.407693839317631e-13\naF3.1790594351762746e-13\naa(lp72\nF3.7494994477059465e-12\naF3.689277553180326e-12\naF0.0\naF0.0\naF0.0\naF0.0\naF0.0\naF0.0\naF0.0\naF0.0\naF0.0\naF0.0\naF0.0\naF0.0\naF0.0\naF0.0\naF0.0\naF0.0\naF0.0\naF0.0\naF0.0\naF0.0\naF0.0\naF0.0\naF0.0\naF0.0\naF0.0\naF0.0\naF0.0\naF0.0\naF0.0\naF0.0\naF0.0\naF0.0\naF0.0\naF0.0\naF0.0\naF0.0\naF1.7649345802914957e-13\naF1.9575119710063859e-13\naF1.529042418784102e-13\naF1.0744532527403026e-13\naF6.652356994907525e-14\naF4.223468053558638e-14\naF3.574523640053694e-14\naF3.442206294610844e-14\naF2.547379756247217e-14\naF1.8157061305014572e-14\naF1.1670729657967016e-14\naF7.623696831607355e-15\naF7.063950699189814e-15\naF2.0522522641867288e-14\naF3.135528550220326e-14\naF4.093943487547841e-14\naF5.117551043827504e-14\naF6.339233979735523e-14\naF8.833829854082906e-14\naF1.302461516956554e-13\naF1.9161930857324575e-13\naF2.3457435611063286e-13\naF2.7323857189916776e-13\naF3.012099100203655e-13\naF3.5527194592017233e-13\naF4.716390129624712e-13\naF1.767180952158804e-13\naF1.959226492045654e-13\naF1.5306925808546607e-13\naF1.0754094526016775e-13\naF6.661327119044128e-14\naF4.22920026126364e-14\naF3.578533978117453e-14\naF3.443528800612864e-14\naF2.5464202513977297e-14\naF1.8126192137224757e-14\naF1.16428587313172e-14\naF7.60066550059852e-15\naF7.045184234773245e-15\naF2.0481281401617813e-14\naF3.1301218211020846e-14\naF4.086914181602395e-14\naF5.108598874164473e-14\naF6.327229403603059e-14\naF8.818743912066709e-14\naF1.3007260497429045e-13\naF1.9143390212256436e-13\naF2.3436369807995475e-13\naF2.729887415350777e-13\naF3.0090117822305764e-13\naF3.549865981543571e-13\naF4.714870475067871e-13\naa(lp73\nF1.0068809000062408e-11\naF9.96847231282262e-12\naF0.0\naF0.0\naF0.0\naF0.0\naF0.0\naF0.0\naF0.0\naF0.0\naF0.0\naF0.0\naF0.0\naF0.0\naF0.0\naF0.0\naF0.0\naF0.0\naF0.0\naF0.0\naF0.0\naF0.0\naF0.0\naF0.0\naF0.0\naF0.0\naF0.0\naF0.0\naF0.0\naF0.0\naF0.0\naF0.0\naF0.0\naF0.0\naF0.0\naF0.0\naF0.0\naF0.0\naF2.2863806209821925e-13\naF2.58423444352905e-13\naF2.0693086379810876e-13\naF1.498444095771019e-13\naF8.731873595637758e-14\naF5.665496045662526e-14\naF4.200210814641862e-14\naF4.1408313870756574e-14\naF3.0874493463600305e-14\naF2.281270668095687e-14\naF1.3300381314819274e-14\naF8.644272588935946e-15\naF7.250221706316597e-15\naF2.2680101938684778e-14\naF3.532799724978006e-14\naF4.8967577955522696e-14\naF6.167603425700606e-14\naF7.716651093487347e-14\naF1.0671715253202479e-13\naF1.5835523720399778e-13\naF2.3457435611063286e-13\naF3.0855806253588284e-13\naF3.667054542363924e-13\naF4.206966201479672e-13\naF4.946077298158238e-13\naF6.499181446641227e-13\naF2.2886207781292096e-13\naF2.585855434917266e-13\naF2.0707998741157733e-13\naF1.4991127083297868e-13\naF8.737470304854229e-14\naF5.66840398686045e-14\naF4.201515604111899e-14\naF4.139924141567484e-14\naF3.0845544219692395e-14\naF2.2763556418037187e-14\naF1.325811056328158e-14\naF8.611679845243399e-15\naF7.22413756855802e-15\naF2.2644332630481934e-14\naF3.527861582548274e-14\naF4.8899239700230063e-14\naF6.158654642022182e-14\naF7.704469204580234e-14\naF1.0655955615245654e-13\naF1.5817696397768175e-13\naF2.343839139298835e-13\naF3.083373919305845e-13\naF3.664301724308804e-13\naF4.2034234606328116e-13\naF4.942592674034717e-13\naF6.497399515473232e-13\naa(lp74\nF2.1686477411791725e-11\naF2.1571076500323212e-11\naF0.0\naF0.0\naF0.0\naF0.0\naF0.0\naF0.0\naF0.0\naF0.0\naF0.0\naF0.0\naF0.0\naF0.0\naF0.0\naF0.0\naF0.0\naF0.0\naF0.0\naF0.0\naF0.0\naF0.0\naF0.0\naF0.0\naF0.0\naF0.0\naF0.0\naF0.0\naF0.0\naF0.0\naF0.0\naF0.0\naF0.0\naF0.0\naF0.0\naF0.0\naF0.0\naF0.0\naF3.55365791496959e-13\naF3.4272658224897073e-13\naF2.6408945424371223e-13\naF1.9072020891445456e-13\naF1.185529576301146e-13\naF7.263509215247059e-14\naF5.3059136301078995e-14\naF4.638280923768059e-14\naF3.233595529653445e-14\naF2.3486701038695458e-14\naF1.3700385545188104e-14\naF7.568252977687153e-15\naF6.344276166630744e-15\naF2.312332855061366e-14\naF3.7408640213015656e-14\naF5.272546909353504e-14\naF7.059288817493637e-14\naF8.974614951549318e-14\naF1.2435383093350937e-13\naF1.8093310056122757e-13\naF2.7323857189916776e-13\naF3.667054542363924e-13\naF4.678137406173189e-13\naF5.552956885722157e-13\naF6.655634262388593e-13\naF8.399113385646691e-13\naF3.557561423294452e-13\naF3.4299205377886326e-13\naF2.6432969406577864e-13\naF1.9084079764420048e-13\naF1.1864547410048028e-13\naF7.268388880557862e-14\naF5.3082721633479177e-14\naF4.6374298704325445e-14\naF3.230854766164486e-14\naF2.3434913452724658e-14\naF1.365630578059667e-14\naF7.534963788026205e-15\naF6.318443132898915e-15\naF2.3094297824981955e-14\naF3.736641602451188e-14\naF5.266347449600596e-14\naF7.050545689991315e-14\naF8.96253693713614e-14\naF1.2419475576464306e-13\naF1.8075163758839122e-13\naF2.730412559560979e-13\naF3.664755611307925e-13\naF4.675272128848969e-13\naF5.549265020781604e-13\naF6.65205252321788e-13\naF8.397289662600912e-13\naa(lp75\nF3.5717847595999333e-11\naF3.551669625669455e-11\naF0.0\naF0.0\naF0.0\naF0.0\naF0.0\naF0.0\naF0.0\naF0.0\naF0.0\naF0.0\naF0.0\naF0.0\naF0.0\naF0.0\naF0.0\naF0.0\naF0.0\naF0.0\naF0.0\naF0.0\naF0.0\naF0.0\naF0.0\naF0.0\naF0.0\naF0.0\naF0.0\naF0.0\naF0.0\naF0.0\naF0.0\naF0.0\naF0.0\naF0.0\naF0.0\naF0.0\naF4.564970883216565e-13\naF4.35569989754181e-13\naF2.9669908266568035e-13\naF2.1916828420274573e-13\naF1.4036922502372966e-13\naF9.185860542798744e-14\naF5.6832262013989254e-14\naF4.8366349963695006e-14\naF2.638584259774591e-14\naF1.835235892905043e-14\naF9.69201883664279e-15\naF4.59835281784882e-15\naF2.4698546434693815e-15\naF2.2421346602975184e-14\naF3.6356248839219636e-14\naF5.314674922952102e-14\naF7.254816669941122e-14\naF1.0302267324911825e-13\naF1.4116644594812886e-13\naF2.032302652202537e-13\naF3.012099100203655e-13\naF4.206966201479672e-13\naF5.552956885722157e-13\naF7.550882045974427e-13\naF9.314417877885751e-13\naF1.1502165510912931e-12\naF4.569051060813464e-13\naF4.358100823839701e-13\naF2.969097079202716e-13\naF2.192603671002792e-13\naF1.4045289594475283e-13\naF9.191240731616908e-14\naF5.685688056156696e-14\naF4.835941306791578e-14\naF2.6355476795135512e-14\naF1.82977293118502e-14\naF9.646161284751564e-15\naF4.565424750347797e-15\naF2.4445086774510948e-15\naF2.2400656852944358e-14\naF3.631870631176514e-14\naF5.308584952682229e-14\naF7.245384786726174e-14\naF1.0289424052083131e-13\naF1.410001598459949e-13\naF2.0304458857005365e-13\naF3.0100282588225653e-13\naF4.204442300630694e-13\naF5.549371373596663e-13\naF7.54647135633299e-13\naF9.310063769465947e-13\naF1.1499669669914615e-12\naa(lp76\nF5.324585389417212e-11\naF5.2952471408391993e-11\naF0.0\naF0.0\naF0.0\naF0.0\naF0.0\naF0.0\naF0.0\naF0.0\naF0.0\naF0.0\naF0.0\naF0.0\naF0.0\naF0.0\naF0.0\naF0.0\naF0.0\naF0.0\naF0.0\naF0.0\naF0.0\naF0.0\naF0.0\naF0.0\naF0.0\naF0.0\naF0.0\naF0.0\naF0.0\naF0.0\naF0.0\naF0.0\naF0.0\naF0.0\naF0.0\naF0.0\naF7.360137462940789e-13\naF6.113620827936698e-13\naF3.92421036532646e-13\naF2.5625256627848754e-13\naF1.5343501684858685e-13\naF1.0867461497776346e-13\naF7.252749594826753e-14\naF5.171072030729393e-14\naF2.1625244918453905e-14\naF8.280423364095397e-15\naF-4.25823405239972e-16\naF-1.989079317109617e-15\naF-1.7343766156727205e-15\naF2.1286287593356465e-14\naF3.584749536751774e-14\naF5.291341453861646e-14\naF7.412922346888454e-14\naF1.0956585845695058e-13\naF1.6409353478531764e-13\naF2.409478911787117e-13\naF3.5527194592017233e-13\naF4.946077298158238e-13\naF6.655634262388593e-13\naF9.314417877885751e-13\naF1.255678989157289e-12\naF1.5831976869096496e-12\naF7.366482871340009e-13\naF6.117326554892966e-13\naF3.926955761136578e-13\naF2.563409493332685e-13\naF1.5349998332272536e-13\naF1.0872227093880575e-13\naF7.254162669704527e-14\naF5.1700042853541373e-14\naF2.1587839168516208e-14\naF8.215956810341787e-15\naF-4.788179105749807e-16\naF-2.02660839803138e-15\naF-1.7653759702449163e-15\naF2.127334758145738e-14\naF3.5814683009906796e-14\naF5.284836365747796e-14\naF7.40166608121295e-14\naF1.0940595378244983e-13\naF1.6388635793655805e-13\naF2.4071166969946283e-13\naF3.5500304757053843e-13\naF4.942806556982429e-13\naF6.651131305291614e-13\naF9.308999922842378e-13\naF1.2552560388799547e-12\naF1.583101459680209e-12\naa(lp77\nF8.009174712698561e-11\naF7.971224040281516e-11\naF0.0\naF0.0\naF0.0\naF0.0\naF0.0\naF0.0\naF0.0\naF0.0\naF0.0\naF0.0\naF0.0\naF0.0\naF0.0\naF0.0\naF0.0\naF0.0\naF0.0\naF0.0\naF0.0\naF0.0\naF0.0\naF0.0\naF0.0\naF0.0\naF0.0\naF0.0\naF0.0\naF0.0\naF0.0\naF0.0\naF0.0\naF0.0\naF0.0\naF0.0\naF0.0\naF0.0\naF1.1132165197502502e-12\naF9.555198679892851e-13\naF6.129861172057071e-13\naF3.9543742414464573e-13\naF2.0584082255064634e-13\naF1.4335589713522134e-13\naF1.0416528642919027e-13\naF7.70119000522743e-14\naF3.202264629737549e-14\naF1.099078138229409e-14\naF-6.705410867914212e-15\naF-7.734986638706253e-15\naF-5.0417502770333516e-15\naF2.220714817933562e-14\naF3.971003592202697e-14\naF5.944162153550609e-14\naF8.00497200493641e-14\naF1.1998489935981422e-13\naF1.9166005218023407e-13\naF3.179982094132556e-13\naF4.716390129624712e-13\naF6.499181446641227e-13\naF8.399113385646691e-13\naF1.1502165510912931e-12\naF1.5831976869096496e-12\naF2.240598933867103e-12\naF1.1137366948391622e-12\naF9.557065008782333e-13\naF6.130023302797314e-13\naF3.9527193670140407e-13\naF2.0569283824727746e-13\naF1.4327364525067346e-13\naF1.0407019796639838e-13\naF7.692276565633989e-14\naF3.19143997980802e-14\naF1.0864757991485576e-14\naF-6.8059018448179294e-15\naF-7.802855194449971e-15\naF-5.1010127536637745e-15\naF2.217543640038866e-14\naF3.964700156599333e-14\naF5.933185582456352e-14\naF7.987544119995573e-14\naF1.1974222003934955e-13\naF1.9135106195544676e-13\naF3.176535301363457e-13\naF4.712425528843334e-13\naF6.494351425159861e-13\naF8.392511404218813e-13\naF1.149404880624332e-12\naF1.5826004653721373e-12\naF2.2406150604718143e-12\naa(lp78\nF5.47758143489716e-11\naF5.470771650566212e-11\naF0.0\naF0.0\naF0.0\naF0.0\naF0.0\naF0.0\naF0.0\naF0.0\naF0.0\naF0.0\naF0.0\naF0.0\naF0.0\naF0.0\naF0.0\naF0.0\naF0.0\naF0.0\naF0.0\naF0.0\naF0.0\naF0.0\naF0.0\naF0.0\naF0.0\naF0.0\naF0.0\naF0.0\naF0.0\naF0.0\naF0.0\naF0.0\naF0.0\naF0.0\naF0.0\naF0.0\naF2.3122496499710674e-12\naF1.6065464459470194e-12\naF1.1106711397963758e-12\naF7.158622238322334e-13\naF5.316123012039895e-13\naF3.9444362763867763e-13\naF3.2858350199782576e-13\naF2.143094944631197e-13\naF1.3443982320819985e-13\naF7.667309227322312e-14\naF5.426052449002189e-14\naF3.9125857959778615e-14\naF3.479428506519334e-14\naF-1.2004690462725195e-14\naF-7.967994982681524e-15\naF-8.542445790907232e-15\naF3.0606150532971796e-15\naF1.0785641268568099e-14\naF4.7209890280854345e-14\naF9.840323266984918e-14\naF1.767180952158804e-13\naF2.2886207781292096e-13\naF3.557561423294452e-13\naF4.569051060813464e-13\naF7.366482871340009e-13\naF1.1137366948391622e-12\naF2.312150564583507e-12\naF1.6061208518615347e-12\naF1.110276356106704e-12\naF7.153943869610228e-13\naF5.312522969771181e-13\naF3.9416891578333426e-13\naF3.2833623580522e-13\naF2.1406551169226825e-13\naF1.3423763662968353e-13\naF7.648487953096961e-14\naF5.409627420981187e-14\naF3.897507727924612e-14\naF3.466686152878743e-14\naF-1.2011498388640642e-14\naF-7.989825084034893e-15\naF-8.590427601527178e-15\naF2.969474235775038e-15\naF1.0641234576841306e-14\naF4.7048094068092663e-14\naF9.8190333293435e-14\naF1.7651329283878072e-13\naF2.286671853180422e-13\naF3.555609834709426e-13\naF4.564426061848903e-13\naF7.365126780298266e-13\naF1.1139264636504835e-12\naa(lp79\nF4.105363585885067e-11\naF4.101234776019806e-11\naF0.0\naF0.0\naF0.0\naF0.0\naF0.0\naF0.0\naF0.0\naF0.0\naF0.0\naF0.0\naF0.0\naF0.0\naF0.0\naF0.0\naF0.0\naF0.0\naF0.0\naF0.0\naF0.0\naF0.0\naF0.0\naF0.0\naF0.0\naF0.0\naF0.0\naF0.0\naF0.0\naF0.0\naF0.0\naF0.0\naF0.0\naF0.0\naF0.0\naF0.0\naF0.0\naF0.0\naF1.6065817275380583e-12\naF1.2976107874648864e-12\naF9.454386497648516e-13\naF6.392246379731148e-13\naF4.622438542099998e-13\naF3.367909763929065e-13\naF2.782998529665842e-13\naF2.0593327354250345e-13\naF1.3815250246735113e-13\naF8.693765510682853e-14\naF5.912481197795459e-14\naF4.123344349875033e-14\naF3.453868124996559e-14\naF4.305342051403926e-16\naF8.163315105599817e-15\naF1.280858855626157e-14\naF2.154425862602491e-14\naF3.1846637871489577e-14\naF6.003504749382342e-14\naF1.1657085107368893e-13\naF1.959226492045654e-13\naF2.585855434917266e-13\naF3.4299205377886326e-13\naF4.358100823839701e-13\naF6.117326554892966e-13\naF9.557065008782333e-13\naF1.6061208518615347e-12\naF1.297110896852396e-12\naF9.450228850632117e-13\naF6.387711100585012e-13\naF4.618874881404939e-13\naF3.3651512334197687e-13\naF2.780571685380231e-13\naF2.0569770988419067e-13\naF1.3794832980034586e-13\naF8.674671445686976e-14\naF5.896210162303602e-14\naF4.1090282709303934e-14\naF3.44208113739662e-14\naF4.0925667862882665e-16\naF8.125456605621855e-15\naF1.2743423039153691e-14\naF2.1446570615964798e-14\naF3.16972721836966e-14\naF5.986608182000012e-14\naF1.163571499824123e-13\naF1.9572328098560184e-13\naF2.5834214255295895e-13\naF3.4268155938742563e-13\naF4.352219738409262e-13\naF6.113040212609132e-13\naF9.554812265178203e-13\naa(lp80\nF2.2654674540188206e-11\naF2.26188441487231e-11\naF0.0\naF0.0\naF0.0\naF0.0\naF0.0\naF0.0\naF0.0\naF0.0\naF0.0\naF0.0\naF0.0\naF0.0\naF0.0\naF0.0\naF0.0\naF0.0\naF0.0\naF0.0\naF0.0\naF0.0\naF0.0\naF0.0\naF0.0\naF0.0\naF0.0\naF0.0\naF0.0\naF0.0\naF0.0\naF0.0\naF0.0\naF0.0\naF0.0\naF0.0\naF0.0\naF0.0\naF1.1106617046382586e-12\naF9.45352966040951e-13\naF7.72932209154657e-13\naF5.380868181854731e-13\naF3.945506411758483e-13\naF2.7773007388620536e-13\naF2.2661491288508064e-13\naF1.727921494026102e-13\naF1.2849579316735986e-13\naF8.520693038382606e-14\naF5.885700006957422e-14\naF3.985354178830464e-14\naF3.272857633877521e-14\naF4.794431582463904e-15\naF1.3088870983159475e-14\naF2.025046150862752e-14\naF2.8864975347455423e-14\naF3.39397522369662e-14\naF5.19104213229942e-14\naF8.915900179044472e-14\naF1.5306925808546607e-13\naF2.0707998741157733e-13\naF2.6432969406577864e-13\naF2.969097079202716e-13\naF3.926955761136578e-13\naF6.130023302797314e-13\naF1.110276356106704e-12\naF9.450228850632117e-13\naF7.726853195156685e-13\naF5.377774619229491e-13\naF3.942788455464079e-13\naF2.7749745586414965e-13\naF2.264092927413022e-13\naF1.7259127383772526e-13\naF1.283215998893231e-13\naF8.504705251060488e-14\naF5.872153726853678e-14\naF3.9737750013086525e-14\naF3.26352509370491e-14\naF4.7867237940212775e-15\naF1.307303491322582e-14\naF2.0213960447179196e-14\naF2.88095528746433e-14\naF3.384183760746171e-14\naF5.179217502677334e-14\naF8.901567638862828e-14\naF1.5295465764943968e-13\naF2.0693291956919676e-13\naF2.6412651085856833e-13\naF2.9646735688644893e-13\naF3.9230674909205676e-13\naF6.127021618842472e-13\naa(lp81\nF1.2538087805157583e-11\naF1.2528759356712694e-11\naF0.0\naF0.0\naF0.0\naF0.0\naF0.0\naF0.0\naF0.0\naF0.0\naF0.0\naF0.0\naF0.0\naF0.0\naF0.0\naF0.0\naF0.0\naF0.0\naF0.0\naF0.0\naF0.0\naF0.0\naF0.0\naF0.0\naF0.0\naF0.0\naF0.0\naF0.0\naF0.0\naF0.0\naF0.0\naF0.0\naF0.0\naF0.0\naF0.0\naF0.0\naF0.0\naF0.0\naF7.158079537143258e-13\naF6.390849188280915e-13\naF5.379911993526486e-13\naF4.0607614968579756e-13\naF3.0456068251268313e-13\naF2.1247272965427314e-13\naF1.656423402435097e-13\naF1.288849923780293e-13\naF9.786413544615377e-14\naF7.007182655241458e-14\naF4.9819727295743854e-14\naF3.3631216716005385e-14\naF2.620441660592908e-14\naF5.561823668350886e-15\naF1.151123819673527e-14\naF1.7915938663085156e-14\naF2.524387651049319e-14\naF3.034774757422571e-14\naF3.916888994340917e-14\naF6.408445538292249e-14\naF1.0754094526016775e-13\naF1.4991127083297868e-13\naF1.9084079764420048e-13\naF2.192603671002792e-13\naF2.563409493332685e-13\naF3.9527193670140407e-13\naF7.153943869610228e-13\naF6.387711100585012e-13\naF5.377774619229491e-13\naF4.0584856434384517e-13\naF3.0436276915234936e-13\naF2.1231429052265925e-13\naF1.6549279654017354e-13\naF1.2873501867460756e-13\naF9.773120244719769e-14\naF6.995173279504137e-14\naF4.971830525512064e-14\naF3.354678256044748e-14\naF2.613690157812242e-14\naF5.552089449525923e-15\naF1.1497417020984531e-14\naF1.7887664675832786e-14\naF2.5203729775978737e-14\naF3.028042085306757e-14\naF3.909138281674177e-14\naF6.398762655087813e-14\naF1.0746588372012488e-13\naF1.4981304485946805e-13\naF1.906948567042836e-13\naF2.1894725135732076e-13\naF2.56015758002041e-13\naF3.949225034035139e-13\naa(lp82\nF2.617241061794753e-12\naF2.626210669354279e-12\naF0.0\naF0.0\naF0.0\naF0.0\naF0.0\naF0.0\naF0.0\naF0.0\naF0.0\naF0.0\naF0.0\naF0.0\naF0.0\naF0.0\naF0.0\naF0.0\naF0.0\naF0.0\naF0.0\naF0.0\naF0.0\naF0.0\naF0.0\naF0.0\naF0.0\naF0.0\naF0.0\naF0.0\naF0.0\naF0.0\naF0.0\naF0.0\naF0.0\naF0.0\naF0.0\naF0.0\naF5.315275720961184e-13\naF4.620796890422472e-13\naF3.943697629101038e-13\naF3.0446594543767655e-13\naF2.518175124029709e-13\naF1.7720274778531187e-13\naF1.3858182660781408e-13\naF1.0574572829992868e-13\naF8.061507578368617e-14\naF5.840442199793616e-14\naF4.502328043163006e-14\naF3.0784567407965e-14\naF2.3865112198615344e-14\naF5.2861095169836526e-15\naF9.618749172144748e-15\naF1.3533865767650933e-14\naF1.9635704715488204e-14\naF2.45938257002332e-14\naF2.8368241967688277e-14\naF3.887506377371579e-14\naF6.661327119044128e-14\naF8.737470304854229e-14\naF1.1864547410048028e-13\naF1.4045289594475283e-13\naF1.5349998332272536e-13\naF2.0569283824727746e-13\naF5.312522969771181e-13\naF4.618874881404939e-13\naF3.942788455464079e-13\naF3.0436276915234936e-13\naF2.517298668165309e-13\naF1.771273925306387e-13\naF1.3850328897467027e-13\naF1.0565522076903971e-13\naF8.05305136934448e-14\naF5.83257176690001e-14\naF4.4955093467722344e-14\naF3.072631512560014e-14\naF2.3819081182477046e-14\naF5.274168993152194e-15\naF9.605426033690617e-15\naF1.3512046468347388e-14\naF1.960632849444638e-14\naF2.454616392810444e-14\naF2.8317177685101576e-14\naF3.880987016527572e-14\naF6.656679325808121e-14\naF8.731517912251937e-14\naF1.1855944202457115e-13\naF1.4026147936485945e-13\naF1.5329179721990304e-13\naF2.0540702575589326e-13\naa(lp83\nF-2.2238791310285516e-12\naF-2.235235991941e-12\naF0.0\naF0.0\naF0.0\naF0.0\naF0.0\naF0.0\naF0.0\naF0.0\naF0.0\naF0.0\naF0.0\naF0.0\naF0.0\naF0.0\naF0.0\naF0.0\naF0.0\naF0.0\naF0.0\naF0.0\naF0.0\naF0.0\naF0.0\naF0.0\naF0.0\naF0.0\naF0.0\naF0.0\naF0.0\naF0.0\naF0.0\naF0.0\naF0.0\naF0.0\naF0.0\naF0.0\naF3.943930191528112e-13\naF3.36683346178907e-13\naF2.7757807517478034e-13\naF2.1240355962892743e-13\naF1.771976784548225e-13\naF1.3651805868748886e-13\naF1.0810932860245926e-13\naF8.246872218205459e-14\naF6.169653164936303e-14\naF4.463026870777003e-14\naF3.451770017563368e-14\naF2.5382893219931396e-14\naF1.9589532123280567e-14\naF4.7440275825704255e-15\naF7.052011617534347e-15\naF9.772669565270304e-15\naF1.2937400744454334e-14\naF1.6711646134473416e-14\naF2.015338597728622e-14\naF2.798575162148429e-14\naF4.22920026126364e-14\naF5.66840398686045e-14\naF7.268388880557862e-14\naF9.191240731616908e-14\naF1.0872227093880575e-13\naF1.4327364525067346e-13\naF3.9416891578333426e-13\naF3.3651512334197687e-13\naF2.7749745586414965e-13\naF2.1231429052265925e-13\naF1.771273925306387e-13\naF1.364622554449563e-13\naF1.0804922189500375e-13\naF8.240302603669713e-14\naF6.163454774019464e-14\naF4.4569516914475416e-14\naF3.446504870722817e-14\naF2.533750041336983e-14\naF1.9552728685236162e-14\naF4.73541286840803e-15\naF7.042707445371161e-15\naF9.75656653856998e-15\naF1.2915007434270807e-14\naF1.6675647996445464e-14\naF2.0118507011841456e-14\naF2.7938864913576906e-14\naF4.2256608799732203e-14\naF5.6643990820857514e-14\naF7.262713251128061e-14\naF9.17770839894621e-14\naF1.0859468503345058e-13\naF1.430949483948294e-13\naa(lp84\nF-3.989890895664015e-12\naF-3.984015865800376e-12\naF0.0\naF0.0\naF0.0\naF0.0\naF0.0\naF0.0\naF0.0\naF0.0\naF0.0\naF0.0\naF0.0\naF0.0\naF0.0\naF0.0\naF0.0\naF0.0\naF0.0\naF0.0\naF0.0\naF0.0\naF0.0\naF0.0\naF0.0\naF0.0\naF0.0\naF0.0\naF0.0\naF0.0\naF0.0\naF0.0\naF0.0\naF0.0\naF0.0\naF0.0\naF0.0\naF0.0\naF3.2846451465027925e-13\naF2.7815603907010077e-13\naF2.264454205521842e-13\naF1.6554928870842366e-13\naF1.3854524885800475e-13\naF1.0808453378855619e-13\naF9.180359681850792e-14\naF6.998177335757723e-14\naF5.186383214722213e-14\naF3.61753550536289e-14\naF2.7837574451769018e-14\naF2.0603703991895932e-14\naF1.6701181199160443e-14\naF4.58145475755354e-15\naF6.616040119411316e-15\naF8.113158053113644e-15\naF1.0502901892085004e-14\naF1.2197671439695421e-14\naF1.6092432165737147e-14\naF2.355991319782576e-14\naF3.578533978117453e-14\naF4.201515604111899e-14\naF5.3082721633479177e-14\naF5.685688056156696e-14\naF7.254162669704527e-14\naF1.0407019796639838e-13\naF3.2833623580522e-13\naF2.780571685380231e-13\naF2.264092927413022e-13\naF1.6549279654017354e-13\naF1.3850328897467027e-13\naF1.0804922189500375e-13\naF9.176486026777093e-14\naF6.993735508195204e-14\naF5.182214313931578e-14\naF3.6131775220613196e-14\naF2.779986148128932e-14\naF2.057050939820954e-14\naF1.6673799760236277e-14\naF4.5718014633542275e-15\naF6.605976091150531e-15\naF8.098175851082552e-15\naF1.0482618062842605e-14\naF1.2166241599437372e-14\naF1.606291670240499e-14\naF2.3519379609745176e-14\naF3.575290543811836e-14\naF4.19776498812349e-14\naF5.3033170643725234e-14\naF5.674347129421897e-14\naF7.245038489214623e-14\naF1.0395586499229133e-13\naa(lp85\nF-4.691114603182844e-12\naF-4.681871659014292e-12\naF0.0\naF0.0\naF0.0\naF0.0\naF0.0\naF0.0\naF0.0\naF0.0\naF0.0\naF0.0\naF0.0\naF0.0\naF0.0\naF0.0\naF0.0\naF0.0\naF0.0\naF0.0\naF0.0\naF0.0\naF0.0\naF0.0\naF0.0\naF0.0\naF0.0\naF0.0\naF0.0\naF0.0\naF0.0\naF0.0\naF0.0\naF0.0\naF0.0\naF0.0\naF0.0\naF0.0\naF2.141924026841248e-13\naF2.0577739006736063e-13\naF1.7262250424446474e-13\naF1.2878216592411785e-13\naF1.0569057118604374e-13\naF8.243569096372426e-14\naF6.997280876650729e-14\naF5.70110591149337e-14\naF4.3172797246299163e-14\naF3.082926311804366e-14\naF2.3237637660554582e-14\naF1.7142457450428785e-14\naF1.3697100510934369e-14\naF5.310954752734912e-15\naF7.580144564880148e-15\naF9.460194756312064e-15\naF1.1224427006209547e-14\naF1.2763519133869864e-14\naF1.5441799988331308e-14\naF2.289464163012226e-14\naF3.443528800612864e-14\naF4.139924141567484e-14\naF4.6374298704325445e-14\naF4.835941306791578e-14\naF5.1700042853541373e-14\naF7.692276565633989e-14\naF2.1406551169226825e-13\naF2.0569770988419067e-13\naF1.7259127383772526e-13\naF1.2873501867460756e-13\naF1.0565522076903971e-13\naF8.240302603669713e-14\naF6.993735508195204e-14\naF5.69697701025896e-14\naF4.3133157544711814e-14\naF3.0788320689773646e-14\naF2.3202798516477978e-14\naF1.711255015164526e-14\naF1.3672777437854346e-14\naF5.29895290267112e-15\naF7.566811959739262e-15\naF9.441964585817387e-15\naF1.1202077646488424e-14\naF1.2731868315419196e-14\naF1.5410252529553433e-14\naF2.285289791254227e-14\naF3.4400943051884175e-14\naF4.1357064961079886e-14\naF4.631893451512569e-14\naF4.8251607058820735e-14\naF5.160013487754863e-14\naF7.679992604203668e-14\naa(lp86\nF-5.344756741479644e-12\naF-5.339114341770246e-12\naF0.0\naF0.0\naF0.0\naF0.0\naF0.0\naF0.0\naF0.0\naF0.0\naF0.0\naF0.0\naF0.0\naF0.0\naF0.0\naF0.0\naF0.0\naF0.0\naF0.0\naF0.0\naF0.0\naF0.0\naF0.0\naF0.0\naF0.0\naF0.0\naF0.0\naF0.0\naF0.0\naF0.0\naF0.0\naF0.0\naF0.0\naF0.0\naF0.0\naF0.0\naF0.0\naF0.0\naF1.3433059520129142e-13\naF1.3799514242152024e-13\naF1.2833383787636893e-13\naF9.776102751365473e-14\naF8.055721027947268e-14\naF6.166223610747455e-14\naF5.1852322054630675e-14\naF4.316854874053197e-14\naF3.470693074505668e-14\naF2.54401899335087e-14\naF1.9213927973202235e-14\naF1.4051861928418294e-14\naF1.1150364704373095e-14\naF4.752247150076338e-15\naF6.8111184413933686e-15\naF8.73426301973526e-15\naF1.0266546929182145e-14\naF1.0837452937610907e-14\naF1.217359911366451e-14\naF1.664067407520792e-14\naF2.5464202513977297e-14\naF3.0845544219692395e-14\naF3.230854766164486e-14\naF2.6355476795135512e-14\naF2.1587839168516208e-14\naF3.19143997980802e-14\naF1.3423763662968353e-13\naF1.3794832980034586e-13\naF1.283215998893231e-13\naF9.773120244719769e-14\naF8.05305136934448e-14\naF6.163454774019464e-14\naF5.182214313931578e-14\naF4.3133157544711814e-14\naF3.467260657221279e-14\naF2.5405602748019657e-14\naF1.9184656404195088e-14\naF1.4027179502323734e-14\naF1.1130561158814778e-14\naF4.7435409420342605e-15\naF6.8018911935860705e-15\naF8.721232487466498e-15\naF1.025172247007079e-14\naF1.0815557644669744e-14\naF1.2151340105787906e-14\naF1.6611754955629494e-14\naF2.5443787647803525e-14\naF3.0819962223771316e-14\naF3.2275033803227237e-14\naF2.628165328930289e-14\naF2.1512747562564687e-14\naF3.181342967210773e-14\naa(lp87\nF-5.177932176459689e-12\naF-5.174855727327629e-12\naF0.0\naF0.0\naF0.0\naF0.0\naF0.0\naF0.0\naF0.0\naF0.0\naF0.0\naF0.0\naF0.0\naF0.0\naF0.0\naF0.0\naF0.0\naF0.0\naF0.0\naF0.0\naF0.0\naF0.0\naF0.0\naF0.0\naF0.0\naF0.0\naF0.0\naF0.0\naF0.0\naF0.0\naF0.0\naF0.0\naF0.0\naF0.0\naF0.0\naF0.0\naF0.0\naF0.0\naF7.657012221873072e-14\naF8.679142300330678e-14\naF8.506179932578492e-14\naF6.997419425829045e-14\naF5.834569886408188e-14\naF4.4589235148833353e-14\naF3.615514824204092e-14\naF3.081654487265636e-14\naF2.5433425111317646e-14\naF1.9807333364037188e-14\naF1.5190341808151206e-14\naF1.1160434231529092e-14\naF8.62111659415861e-15\naF3.953942739742418e-15\naF5.5285781167936046e-15\naF7.18736338569319e-15\naF8.502428341398605e-15\naF8.976918297809082e-15\naF9.207372613387871e-15\naF1.2049291052820543e-14\naF1.8126192137224757e-14\naF2.2763556418037187e-14\naF2.3434913452724658e-14\naF1.82977293118502e-14\naF8.215956810341787e-15\naF1.0864757991485576e-14\naF7.648487953096961e-14\naF8.674671445686976e-14\naF8.504705251060488e-14\naF6.995173279504137e-14\naF5.83257176690001e-14\naF4.4569516914475416e-14\naF3.6131775220613196e-14\naF3.0788320689773646e-14\naF2.5405602748019657e-14\naF1.9779200693910206e-14\naF1.516643057953912e-14\naF1.1140609194808681e-14\naF8.605303915136823e-15\naF3.9467408841789155e-15\naF5.5212093085192305e-15\naF7.177316346090834e-15\naF8.491895767372276e-15\naF8.962254855056382e-15\naF9.193708099021795e-15\naF1.203061293751337e-14\naF1.811363356888596e-14\naF2.2747629395748146e-14\naF2.3414983446815493e-14\naF1.8251986911561833e-14\naF8.16224345045546e-15\naF1.0781220902886502e-14\naa(lp88\nF-5.223073612060658e-12\naF-5.215782193421311e-12\naF0.0\naF0.0\naF0.0\naF0.0\naF0.0\naF0.0\naF0.0\naF0.0\naF0.0\naF0.0\naF0.0\naF0.0\naF0.0\naF0.0\naF0.0\naF0.0\naF0.0\naF0.0\naF0.0\naF0.0\naF0.0\naF0.0\naF0.0\naF0.0\naF0.0\naF0.0\naF0.0\naF0.0\naF0.0\naF0.0\naF0.0\naF0.0\naF0.0\naF0.0\naF0.0\naF0.0\naF5.414920876172252e-14\naF5.898891208924977e-14\naF5.872137547270315e-14\naF4.972386082817319e-14\naF4.495942154649465e-14\naF3.4472407524764725e-14\naF2.781169757636909e-14\naF2.3220801610776082e-14\naF1.920361747592156e-14\naF1.5186679165432694e-14\naF1.2313407910308008e-14\naF9.150331775835391e-15\naF7.07694326236346e-15\naF3.169142672337926e-15\naF4.365242927850037e-15\naF5.473039421849292e-15\naF6.565018166024182e-15\naF7.115656438625274e-15\naF6.880442049285997e-15\naF7.767964834113689e-15\naF1.16428587313172e-14\naF1.325811056328158e-14\naF1.365630578059667e-14\naF9.646161284751564e-15\naF-4.788179105749807e-16\naF-6.8059018448179294e-15\naF5.409627420981187e-14\naF5.896210162303602e-14\naF5.872153726853678e-14\naF4.971830525512064e-14\naF4.4955093467722344e-14\naF3.446504870722817e-14\naF2.779986148128932e-14\naF2.3202798516477978e-14\naF1.9184656404195088e-14\naF1.516643057953912e-14\naF1.2295664532007482e-14\naF9.135093532656884e-15\naF7.064836061671822e-15\naF3.162824709436398e-15\naF4.359025384208068e-15\naF5.465278558047123e-15\naF6.557283207411825e-15\naF7.1053213919522775e-15\naF6.871872586088014e-15\naF7.75569797966115e-15\naF1.1636028582566016e-14\naF1.3250485064299839e-14\naF1.3649220337608392e-14\naF9.623954717188429e-15\naF-5.065398011797966e-16\naF-6.865603384791436e-15\naa(lp89\nF-5.154099716496311e-12\naF-5.1488786498647045e-12\naF0.0\naF0.0\naF0.0\naF0.0\naF0.0\naF0.0\naF0.0\naF0.0\naF0.0\naF0.0\naF0.0\naF0.0\naF0.0\naF0.0\naF0.0\naF0.0\naF0.0\naF0.0\naF0.0\naF0.0\naF0.0\naF0.0\naF0.0\naF0.0\naF0.0\naF0.0\naF0.0\naF0.0\naF0.0\naF0.0\naF0.0\naF0.0\naF0.0\naF0.0\naF0.0\naF0.0\naF3.901105845011025e-14\naF4.111070645262828e-14\naF3.9736580980990364e-14\naF3.3550115756321924e-14\naF3.072798572127561e-14\naF2.53412626158315e-14\naF2.057811750510523e-14\naF1.7124944959543382e-14\naF1.4040736082907613e-14\naF1.1155891425924599e-14\naF9.148651101494545e-15\naF7.1553815273895e-15\naF5.568477846460452e-15\naF2.5427076914899724e-15\naF3.316853194780296e-15\naF4.120049668089735e-15\naF4.711685850664565e-15\naF5.077665921300973e-15\naF5.018324587228632e-15\naF5.66090039257038e-15\naF7.60066550059852e-15\naF8.611679845243399e-15\naF7.534963788026205e-15\naF4.565424750347797e-15\naF-2.02660839803138e-15\naF-7.802855194449971e-15\naF3.897507727924612e-14\naF4.1090282709303934e-14\naF3.9737750013086525e-14\naF3.354678256044748e-14\naF3.072631512560014e-14\naF2.533750041336983e-14\naF2.057050939820954e-14\naF1.711255015164526e-14\naF1.4027179502323734e-14\naF1.1140609194808681e-14\naF9.135093532656884e-15\naF7.143373056984542e-15\naF5.558670748757827e-15\naF2.538046617009272e-15\naF3.3123359535724e-15\naF4.114644031261797e-15\naF4.706564900748082e-15\naF5.071168142840704e-15\naF5.014111520794024e-15\naF5.654020001895291e-15\naF7.598242866317086e-15\naF8.610794536197294e-15\naF7.537029860755517e-15\naF4.55760267546806e-15\naF-2.0340332057922497e-15\naF-7.833659331407548e-15\naa(lp90\nF-4.726170148098892e-12\naF-4.719383729947897e-12\naF0.0\naF0.0\naF0.0\naF0.0\naF0.0\naF0.0\naF0.0\naF0.0\naF0.0\naF0.0\naF0.0\naF0.0\naF0.0\naF0.0\naF0.0\naF0.0\naF0.0\naF0.0\naF0.0\naF0.0\naF0.0\naF0.0\naF0.0\naF0.0\naF0.0\naF0.0\naF0.0\naF0.0\naF0.0\naF0.0\naF0.0\naF0.0\naF0.0\naF0.0\naF0.0\naF0.0\naF3.467900293052204e-14\naF3.442620520576854e-14\naF3.26255486531882e-14\naF2.613457945723397e-14\naF2.3816346901253122e-14\naF1.955314239291658e-14\naF1.667722125596157e-14\naF1.368052893131289e-14\naF1.1139390145473286e-14\naF8.616152629416046e-15\naF7.074629826507951e-15\naF5.56769558498983e-15\naF4.503082609725776e-15\naF2.176466129623969e-15\naF2.8605765355280204e-15\naF3.4274966939584216e-15\naF3.93060400455554e-15\naF4.0564959220342185e-15\naF4.302586097712877e-15\naF5.131520195795833e-15\naF7.045184234773245e-15\naF7.22413756855802e-15\naF6.318443132898915e-15\naF2.4445086774510948e-15\naF-1.7653759702449163e-15\naF-5.1010127536637745e-15\naF3.466686152878743e-14\naF3.44208113739662e-14\naF3.26352509370491e-14\naF2.613690157812242e-14\naF2.3819081182477046e-14\naF1.9552728685236162e-14\naF1.6673799760236277e-14\naF1.3672777437854346e-14\naF1.1130561158814778e-14\naF8.605303915136823e-15\naF7.064836061671822e-15\naF5.558670748757827e-15\naF4.4955396457825695e-15\naF2.1722763543813218e-15\naF2.856439241608957e-15\naF3.4228330677244557e-15\naF3.9261706534900685e-15\naF4.050909936025026e-15\naF4.29889307464926e-15\naF5.125551313097986e-15\naF7.042950587793249e-15\naF7.223588828656648e-15\naF6.3213119968051605e-15\naF2.4392015167874286e-15\naF-1.7672748986071122e-15\naF-5.11858927087478e-15\naa(lp91\nF-5.504766189436161e-12\naF-5.509036316450255e-12\naF0.0\naF0.0\naF0.0\naF0.0\naF0.0\naF0.0\naF0.0\naF0.0\naF0.0\naF0.0\naF0.0\naF0.0\naF0.0\naF0.0\naF0.0\naF0.0\naF0.0\naF0.0\naF0.0\naF0.0\naF0.0\naF0.0\naF0.0\naF0.0\naF0.0\naF0.0\naF0.0\naF0.0\naF0.0\naF0.0\naF0.0\naF0.0\naF0.0\naF0.0\naF0.0\naF0.0\naF-1.2037602677625757e-14\naF3.82525602003501e-16\naF4.750284118400399e-15\naF5.528486082022009e-15\naF5.251722064350275e-15\naF4.721212604591861e-15\naF4.562250374736081e-15\naF5.294616348424197e-15\naF4.743399510926115e-15\naF3.95055816719882e-15\naF3.166426587284737e-15\naF2.541124174935544e-15\naF2.1748739611798967e-15\naF4.565704282885454e-15\naF5.991120842187553e-15\naF7.28605201358643e-15\naF8.491569409344586e-15\naF9.895892479606329e-15\naF1.2168769373358128e-14\naF1.5713914224877466e-14\naF2.0481281401617813e-14\naF2.2644332630481934e-14\naF2.3094297824981955e-14\naF2.2400656852944358e-14\naF2.127334758145738e-14\naF2.217543640038866e-14\naF-1.2011498388640642e-14\naF4.0925667862882665e-16\naF4.7867237940212775e-15\naF5.552089449525923e-15\naF5.274168993152194e-15\naF4.73541286840803e-15\naF4.5718014633542275e-15\naF5.29895290267112e-15\naF4.7435409420342605e-15\naF3.9467408841789155e-15\naF3.162824709436398e-15\naF2.538046617009272e-15\naF2.1722763543813218e-15\naF4.556070688075222e-15\naF5.979880219589569e-15\naF7.27308085306044e-15\naF8.477050635401261e-15\naF9.87875541438648e-15\naF1.2149773753779054e-14\naF1.569182276993702e-14\naF2.0459575014570538e-14\naF2.262271103602596e-14\naF2.3072032650493267e-14\naF2.2376400338418706e-14\naF2.125410252509719e-14\naF2.2156032033375832e-14\naa(lp92\nF-5.745489619289473e-12\naF-5.750880256247118e-12\naF0.0\naF0.0\naF0.0\naF0.0\naF0.0\naF0.0\naF0.0\naF0.0\naF0.0\naF0.0\naF0.0\naF0.0\naF0.0\naF0.0\naF0.0\naF0.0\naF0.0\naF0.0\naF0.0\naF0.0\naF0.0\naF0.0\naF0.0\naF0.0\naF0.0\naF0.0\naF0.0\naF0.0\naF0.0\naF0.0\naF0.0\naF0.0\naF0.0\naF0.0\naF0.0\naF0.0\naF-8.033555870525041e-15\naF8.081869058076604e-15\naF1.3021694574395271e-14\naF1.1464966422660272e-14\naF9.575660364502591e-15\naF7.0252395193549364e-15\naF6.594139877550995e-15\naF7.562378720279775e-15\naF6.803024263448922e-15\naF5.5277654915872334e-15\naF4.365128300585098e-15\naF3.317656657219481e-15\naF2.860809117714848e-15\naF5.992758080698087e-15\naF8.23714186604782e-15\naF1.0149135456300355e-14\naF1.1991000862586202e-14\naF1.3913431266500987e-14\naF1.7298025532125548e-14\naF2.2716881084883074e-14\naF3.1301218211020846e-14\naF3.527861582548274e-14\naF3.736641602451188e-14\naF3.631870631176514e-14\naF3.5814683009906796e-14\naF3.964700156599333e-14\naF-7.989825084034893e-15\naF8.125456605621855e-15\naF1.307303491322582e-14\naF1.1497417020984531e-14\naF9.605426033690617e-15\naF7.042707445371161e-15\naF6.605976091150531e-15\naF7.566811959739262e-15\naF6.8018911935860705e-15\naF5.5212093085192305e-15\naF4.359025384208068e-15\naF3.3123359535724e-15\naF2.856439241608957e-15\naF5.979880219589569e-15\naF8.221705196898847e-15\naF1.0130867612203902e-14\naF1.19701191497067e-14\naF1.3888077536967452e-14\naF1.7268854186850146e-14\naF2.2683442860823873e-14\naF3.1268628124649884e-14\naF3.5244751187045345e-14\naF3.73304186666614e-14\naF3.6278297911574645e-14\naF3.5779436542492665e-14\naF3.961791768972109e-14\naa(lp93\nF-5.772267637485684e-12\naF-5.782336963582518e-12\naF0.0\naF0.0\naF0.0\naF0.0\naF0.0\naF0.0\naF0.0\naF0.0\naF0.0\naF0.0\naF0.0\naF0.0\naF0.0\naF0.0\naF0.0\naF0.0\naF0.0\naF0.0\naF0.0\naF0.0\naF0.0\naF0.0\naF0.0\naF0.0\naF0.0\naF0.0\naF0.0\naF0.0\naF0.0\naF0.0\naF0.0\naF0.0\naF0.0\naF0.0\naF0.0\naF0.0\naF-8.639397925217822e-15\naF1.2692712500285561e-14\naF2.015440110617777e-14\naF1.7851940859497867e-14\naF1.348074865648306e-14\naF9.739351315610344e-15\naF8.087664562613778e-15\naF9.43928212506735e-15\naF8.724853766931708e-15\naF7.187008997730857e-15\naF5.474042444148562e-15\naF4.12200159291375e-15\naF3.4287784402072057e-15\naF7.287444015850963e-15\naF1.014836498725898e-14\naF1.2993322669687993e-14\naF1.545954406777778e-14\naF1.8073005572865287e-14\naF2.2388357062358428e-14\naF2.950703513036091e-14\naF4.086914181602395e-14\naF4.8899239700230063e-14\naF5.266347449600596e-14\naF5.308584952682229e-14\naF5.284836365747796e-14\naF5.933185582456352e-14\naF-8.590427601527178e-15\naF1.2743423039153691e-14\naF2.0213960447179196e-14\naF1.7887664675832786e-14\naF1.3512046468347388e-14\naF9.75656653856998e-15\naF8.098175851082552e-15\naF9.441964585817387e-15\naF8.721232487466498e-15\naF7.177316346090834e-15\naF5.465278558047123e-15\naF4.114644031261797e-15\naF3.4228330677244557e-15\naF7.27308085306044e-15\naF1.0130867612203902e-14\naF1.2972037436665873e-14\naF1.543500289871136e-14\naF1.804282966739701e-14\naF2.2352974411495844e-14\naF2.946743546878154e-14\naF4.0831572896907746e-14\naF4.886078577269524e-14\naF5.2620868240355665e-14\naF5.30357632204139e-14\naF5.280177531871886e-14\naF5.929685970045176e-14\naa(lp94\nF-5.344798960375222e-12\naF-5.354959410638067e-12\naF0.0\naF0.0\naF0.0\naF0.0\naF0.0\naF0.0\naF0.0\naF0.0\naF0.0\naF0.0\naF0.0\naF0.0\naF0.0\naF0.0\naF0.0\naF0.0\naF0.0\naF0.0\naF0.0\naF0.0\naF0.0\naF0.0\naF0.0\naF0.0\naF0.0\naF0.0\naF0.0\naF0.0\naF0.0\naF0.0\naF0.0\naF0.0\naF0.0\naF0.0\naF0.0\naF0.0\naF2.8895585495683856e-15\naF2.1370525796561306e-14\naF2.872268716104365e-14\naF2.5148874626653533e-14\naF1.9559776078454315e-14\naF1.2888519615141973e-14\naF1.0465885242422309e-14\naF1.1196586329665679e-14\naF1.0253848403377243e-14\naF8.501887895549252e-15\naF6.566517406152085e-15\naF4.714413312469004e-15\naF3.932306259206986e-15\naF8.492998444105358e-15\naF1.1989476400048023e-14\naF1.545877071465418e-14\naF1.913307455628199e-14\naF2.2524787561859684e-14\naF2.806201133586473e-14\naF3.644465489157792e-14\naF5.108598874164473e-14\naF6.158654642022182e-14\naF7.050545689991315e-14\naF7.245384786726174e-14\naF7.40166608121295e-14\naF7.987544119995573e-14\naF2.969474235775038e-15\naF2.1446570615964798e-14\naF2.88095528746433e-14\naF2.5203729775978737e-14\naF1.960632849444638e-14\naF1.2915007434270807e-14\naF1.0482618062842605e-14\naF1.1202077646488424e-14\naF1.025172247007079e-14\naF8.491895767372276e-15\naF6.557283207411825e-15\naF4.706564900748082e-15\naF3.9261706534900685e-15\naF8.477050635401261e-15\naF1.19701191497067e-14\naF1.543500289871136e-14\naF1.9105032211990826e-14\naF2.248953781730306e-14\naF2.8020284811711034e-14\naF3.6397376906457644e-14\naF5.1041080917842406e-14\naF6.154138126775575e-14\naF7.045719922851421e-14\naF7.239597316276475e-14\naF7.39634862888686e-14\naF7.983024166643326e-14\naa(lp95\nF-4.277184933787168e-12\naF-4.2954564719658384e-12\naF0.0\naF0.0\naF0.0\naF0.0\naF0.0\naF0.0\naF0.0\naF0.0\naF0.0\naF0.0\naF0.0\naF0.0\naF0.0\naF0.0\naF0.0\naF0.0\naF0.0\naF0.0\naF0.0\naF0.0\naF0.0\naF0.0\naF0.0\naF0.0\naF0.0\naF0.0\naF0.0\naF0.0\naF0.0\naF0.0\naF0.0\naF0.0\naF0.0\naF0.0\naF0.0\naF0.0\naF1.05503686188011e-14\naF3.1613928435495614e-14\naF3.374298297197998e-14\naF3.0214941264863354e-14\naF2.448707762879744e-14\naF1.6638333620795815e-14\naF1.2140813480839829e-14\naF1.2720175475137772e-14\naF1.0815055908901724e-14\naF8.971477875294095e-15\naF7.114211964519288e-15\naF5.078585502720219e-15\naF4.056483219565525e-15\naF9.896930588865927e-15\naF1.3910629397533414e-14\naF1.8070889883888967e-14\naF2.2523610798074834e-14\naF2.8221970335096356e-14\naF3.532667726792237e-14\naF4.597420617763821e-14\naF6.327229403603059e-14\naF7.704469204580234e-14\naF8.96253693713614e-14\naF1.0289424052083131e-13\naF1.0940595378244983e-13\naF1.1974222003934955e-13\naF1.0641234576841306e-14\naF3.16972721836966e-14\naF3.384183760746171e-14\naF3.028042085306757e-14\naF2.454616392810444e-14\naF1.6675647996445464e-14\naF1.2166241599437372e-14\naF1.2731868315419196e-14\naF1.0815557644669744e-14\naF8.962254855056382e-15\naF7.1053213919522775e-15\naF5.071168142840704e-15\naF4.050909936025026e-15\naF9.87875541438648e-15\naF1.3888077536967452e-14\naF1.804282966739701e-14\naF2.248953781730306e-14\naF2.817799170779278e-14\naF3.527457213056161e-14\naF4.591618160455551e-14\naF6.321581005965959e-14\naF7.698690618010627e-14\naF8.955736212436518e-14\naF1.0281314297208845e-13\naF1.093270044980804e-13\naF1.1967316683373238e-13\naa(lp96\nF-3.2297742428736846e-12\naF-3.2626493897936483e-12\naF0.0\naF0.0\naF0.0\naF0.0\naF0.0\naF0.0\naF0.0\naF0.0\naF0.0\naF0.0\naF0.0\naF0.0\naF0.0\naF0.0\naF0.0\naF0.0\naF0.0\naF0.0\naF0.0\naF0.0\naF0.0\naF0.0\naF0.0\naF0.0\naF0.0\naF0.0\naF0.0\naF0.0\naF0.0\naF0.0\naF0.0\naF0.0\naF0.0\naF0.0\naF0.0\naF0.0\naF4.6910969209064556e-14\naF5.974973979514765e-14\naF5.1662613342630116e-14\naF3.900603801095504e-14\naF2.8240884944661423e-14\naF2.0067661867311297e-14\naF1.6026306673018478e-14\naF1.538997261696264e-14\naF1.214608683922669e-14\naF9.201627413437663e-15\naF6.880047206668347e-15\naF5.021248592121794e-15\naF4.3042808442498616e-15\naF1.2171379880217588e-14\naF1.729623126641853e-14\naF2.2387646331044445e-14\naF2.8063750217617008e-14\naF3.5332364403910027e-14\naF4.734198196978049e-14\naF6.386584427328948e-14\naF8.818743912066709e-14\naF1.0655955615245654e-13\naF1.2419475576464306e-13\naF1.410001598459949e-13\naF1.6388635793655805e-13\naF1.9135106195544676e-13\naF4.7048094068092663e-14\naF5.986608182000012e-14\naF5.179217502677334e-14\naF3.909138281674177e-14\naF2.8317177685101576e-14\naF2.0118507011841456e-14\naF1.606291670240499e-14\naF1.5410252529553433e-14\naF1.2151340105787906e-14\naF9.193708099021795e-15\naF6.871872586088014e-15\naF5.014111520794024e-15\naF4.29889307464926e-15\naF1.2149773753779054e-14\naF1.7268854186850146e-14\naF2.2352974411495844e-14\naF2.8020284811711034e-14\naF3.527457213056161e-14\naF4.72714500990503e-14\naF6.378584339958364e-14\naF8.810563433787746e-14\naF1.0647366770542968e-13\naF1.2409445918199666e-13\naF1.4087930874072923e-13\naF1.6378140474413465e-13\naF1.9128750888641814e-13\naa(lp97\nF-1.011518331351087e-12\naF-1.0628303272311802e-12\naF0.0\naF0.0\naF0.0\naF0.0\naF0.0\naF0.0\naF0.0\naF0.0\naF0.0\naF0.0\naF0.0\naF0.0\naF0.0\naF0.0\naF0.0\naF0.0\naF0.0\naF0.0\naF0.0\naF0.0\naF0.0\naF0.0\naF0.0\naF0.0\naF0.0\naF0.0\naF0.0\naF0.0\naF0.0\naF0.0\naF0.0\naF0.0\naF0.0\naF0.0\naF0.0\naF0.0\naF9.804215704785844e-14\naF1.1624534390556685e-13\naF8.88932459967086e-14\naF6.391412524659482e-14\naF3.873915395884502e-14\naF2.788951069098994e-14\naF2.34841252394492e-14\naF2.283550201899496e-14\naF1.6612656467997074e-14\naF1.2047396468978094e-14\naF7.771211646282854e-15\naF5.6667006899418525e-15\naF5.1359952221625635e-15\naF1.572187940330493e-14\naF2.2722465868931983e-14\naF2.951740707748251e-14\naF3.646035713033865e-14\naF4.600044999253985e-14\naF6.38894663918346e-14\naF9.301848906907075e-14\naF1.3007260497429045e-13\naF1.5817696397768175e-13\naF1.8075163758839122e-13\naF2.0304458857005365e-13\naF2.4071166969946283e-13\naF3.176535301363457e-13\naF9.8190333293435e-14\naF1.163571499824123e-13\naF8.901567638862828e-14\naF6.398762655087813e-14\naF3.880987016527572e-14\naF2.7938864913576906e-14\naF2.3519379609745176e-14\naF2.285289791254227e-14\naF1.6611754955629494e-14\naF1.203061293751337e-14\naF7.75569797966115e-15\naF5.654020001895291e-15\naF5.125551313097986e-15\naF1.569182276993702e-14\naF2.2683442860823873e-14\naF2.946743546878154e-14\naF3.6397376906457644e-14\naF4.591618160455551e-14\naF6.378584339958364e-14\naF9.28992919142471e-14\naF1.2994562410666088e-13\naF1.5803839159630515e-13\naF1.8058829106960644e-13\naF2.0284197433244737e-13\naF2.4053436100104107e-13\naF3.1756242724656403e-13\naa(lp98\nF3.730020576011003e-12\naF3.669716747715039e-12\naF0.0\naF0.0\naF0.0\naF0.0\naF0.0\naF0.0\naF0.0\naF0.0\naF0.0\naF0.0\naF0.0\naF0.0\naF0.0\naF0.0\naF0.0\naF0.0\naF0.0\naF0.0\naF0.0\naF0.0\naF0.0\naF0.0\naF0.0\naF0.0\naF0.0\naF0.0\naF0.0\naF0.0\naF0.0\naF0.0\naF0.0\naF0.0\naF0.0\naF0.0\naF0.0\naF0.0\naF1.7628842024502237e-13\naF1.9555151570557473e-13\naF1.527894366915933e-13\naF1.0737011205642665e-13\naF6.647697893601523e-14\naF4.2199172077024824e-14\naF3.5712697633420894e-14\naF3.438761435499323e-14\naF2.5453288662649575e-14\naF1.8144418990636055e-14\naF1.1663834235731377e-14\naF7.621226450374954e-15\naF7.061684074327939e-15\naF2.0500641490769326e-14\naF3.132247297120193e-14\naF4.090157541129796e-14\naF5.113021821486835e-14\naF6.333534278496675e-14\naF8.825583087666987e-14\naF1.3011832282969251e-13\naF1.9143390212256436e-13\naF2.343839139298835e-13\naF2.730412559560979e-13\naF3.0100282588225653e-13\naF3.5500304757053843e-13\naF4.712425528843334e-13\naF1.7651329283878072e-13\naF1.9572328098560184e-13\naF1.5295465764943968e-13\naF1.0746588372012488e-13\naF6.656679325808121e-14\naF4.2256608799732203e-14\naF3.575290543811836e-14\naF3.4400943051884175e-14\naF2.5443787647803525e-14\naF1.811363356888596e-14\naF1.1636028582566016e-14\naF7.598242866317086e-15\naF7.042950587793249e-15\naF2.0459575014570538e-14\naF3.1268628124649884e-14\naF4.0831572896907746e-14\naF5.1041080917842406e-14\naF6.321581005965959e-14\naF8.810563433787746e-14\naF1.2994562410666088e-13\naF1.9124954520747155e-13\naF2.3417443905669564e-13\naF2.7279276554349295e-13\naF3.006956536520034e-13\naF3.547192683567521e-13\naF4.710920434133148e-13\naa(lp99\nF1.0041126820713581e-11\naF9.940826445319071e-12\naF0.0\naF0.0\naF0.0\naF0.0\naF0.0\naF0.0\naF0.0\naF0.0\naF0.0\naF0.0\naF0.0\naF0.0\naF0.0\naF0.0\naF0.0\naF0.0\naF0.0\naF0.0\naF0.0\naF0.0\naF0.0\naF0.0\naF0.0\naF0.0\naF0.0\naF0.0\naF0.0\naF0.0\naF0.0\naF0.0\naF0.0\naF0.0\naF0.0\naF0.0\naF0.0\naF0.0\naF2.284428066184014e-13\naF2.581795520182047e-13\naF2.0678338354631312e-13\naF1.4974584741979938e-13\naF8.725897203468044e-14\naF5.661468417624754e-14\naF4.196442353596129e-14\naF4.1365970949756014e-14\naF3.084875989382238e-14\naF2.279665654054892e-14\naF1.3292663900239457e-14\naF8.643322294168882e-15\naF7.249631734142595e-15\naF2.2658295903292332e-14\naF3.529389707056182e-14\naF4.89288035941833e-14\naF6.163046066105442e-14\naF7.710816992454659e-14\naF1.0663055030888116e-13\naF1.5821571646030468e-13\naF2.3436369807995475e-13\naF3.083373919305845e-13\naF3.664755611307925e-13\naF4.204442300630694e-13\naF4.942806556982429e-13\naF6.494351425159861e-13\naF2.286671853180422e-13\naF2.5834214255295895e-13\naF2.0693291956919676e-13\naF1.4981304485946805e-13\naF8.731517912251937e-14\naF5.6643990820857514e-14\naF4.19776498812349e-14\naF4.1357064961079886e-14\naF3.0819962223771316e-14\naF2.2747629395748146e-14\naF1.3250485064299839e-14\naF8.610794536197294e-15\naF7.223588828656648e-15\naF2.262271103602596e-14\naF3.5244751187045345e-14\naF4.886078577269524e-14\naF6.154138126775575e-14\naF7.698690618010627e-14\naF1.0647366770542968e-13\naF1.5803839159630515e-13\naF2.3417443905669564e-13\naF3.0811820484368187e-13\naF3.6620199431664147e-13\naF4.2009200280787875e-13\naF4.939342729258577e-13\naF6.492589755424378e-13\naa(lp100\nF2.1636877615896776e-11\naF2.1521585110997807e-11\naF0.0\naF0.0\naF0.0\naF0.0\naF0.0\naF0.0\naF0.0\naF0.0\naF0.0\naF0.0\naF0.0\naF0.0\naF0.0\naF0.0\naF0.0\naF0.0\naF0.0\naF0.0\naF0.0\naF0.0\naF0.0\naF0.0\naF0.0\naF0.0\naF0.0\naF0.0\naF0.0\naF0.0\naF0.0\naF0.0\naF0.0\naF0.0\naF0.0\naF0.0\naF0.0\naF0.0\naF3.551699368792637e-13\naF3.424153412329887e-13\naF2.6388556445817906e-13\naF1.905737160614414e-13\naF1.1846653005737736e-13\naF7.257803377373412e-14\naF5.3009361665078356e-14\naF4.632727398979457e-14\naF3.230228266344685e-14\naF2.3466647316810532e-14\naF1.3693213282767561e-14\naF7.570268849088063e-15\naF6.3471178380068065e-15\naF2.310087595317121e-14\naF3.737239867081867e-14\naF5.268252133346917e-14\naF7.054417907265918e-14\naF8.967751975923553e-14\naF1.2425272528555408e-13\naF1.8076870945091746e-13\naF2.729887415350777e-13\naF3.664301724308804e-13\naF4.675272128848969e-13\naF5.549371373596663e-13\naF6.651131305291614e-13\naF8.392511404218813e-13\naF3.555609834709426e-13\naF3.4268155938742563e-13\naF2.6412651085856833e-13\naF1.906948567042836e-13\naF1.1855944202457115e-13\naF7.262713251128061e-14\naF5.3033170643725234e-14\naF4.631893451512569e-14\naF3.2275033803227237e-14\naF2.3414983446815493e-14\naF1.3649220337608392e-14\naF7.537029860755517e-15\naF6.3213119968051605e-15\naF2.3072032650493267e-14\naF3.73304186666614e-14\naF5.2620868240355665e-14\naF7.045719922851421e-14\naF8.955736212436518e-14\naF1.2409445918199666e-13\naF1.8058829106960644e-13\naF2.7279276554349295e-13\naF3.6620199431664147e-13\naF4.672428719381736e-13\naF5.545705514301151e-13\naF6.647577562800441e-13\naF8.39071269428197e-13\naa(lp101\nF3.565810316631008e-11\naF3.5457051469795746e-11\naF0.0\naF0.0\naF0.0\naF0.0\naF0.0\naF0.0\naF0.0\naF0.0\naF0.0\naF0.0\naF0.0\naF0.0\naF0.0\naF0.0\naF0.0\naF0.0\naF0.0\naF0.0\naF0.0\naF0.0\naF0.0\naF0.0\naF0.0\naF0.0\naF0.0\naF0.0\naF0.0\naF0.0\naF0.0\naF0.0\naF0.0\naF0.0\naF0.0\naF0.0\naF0.0\naF0.0\naF4.560337558935571e-13\naF4.349808548788304e-13\naF2.962558002328098e-13\naF2.1885431737568747e-13\naF1.4017719332468334e-13\naF9.172277142630371e-14\naF5.671851361432508e-14\naF4.82582837524859e-14\naF2.631178866759051e-14\naF1.8306430053284792e-14\naF9.669677948782465e-15\naF4.5904406744278995e-15\naF2.4644944410304917e-15\naF2.2396897540792027e-14\naF3.631558919846448e-14\naF5.309629487081932e-14\naF7.248980229745292e-14\naF1.0294084513709194e-13\naF1.4104464217609524e-13\naF2.0302639310823606e-13\naF3.0090117822305764e-13\naF4.2034234606328116e-13\naF5.549265020781604e-13\naF7.54647135633299e-13\naF9.308999922842378e-13\naF1.149404880624332e-12\naF4.564426061848903e-13\naF4.352219738409262e-13\naF2.9646735688644893e-13\naF2.1894725135732076e-13\naF1.4026147936485945e-13\naF9.17770839894621e-14\naF5.674347129421897e-14\naF4.8251607058820735e-14\naF2.628165328930289e-14\naF1.8251986911561833e-14\naF9.623954717188429e-15\naF4.55760267546806e-15\naF2.4392015167874286e-15\naF2.2376400338418706e-14\naF3.6278297911574645e-14\naF5.30357632204139e-14\naF7.239597316276475e-14\naF1.0281314297208845e-13\naF1.4087930874072923e-13\naF2.0284197433244737e-13\naF3.006956536520034e-13\naF4.2009200280787875e-13\naF5.545705514301151e-13\naF7.542094862474117e-13\naF9.304682772595967e-13\naF1.149158943794327e-12\naa(lp102\nF5.3179836857641125e-11\naF5.2886524603331504e-11\naF0.0\naF0.0\naF0.0\naF0.0\naF0.0\naF0.0\naF0.0\naF0.0\naF0.0\naF0.0\naF0.0\naF0.0\naF0.0\naF0.0\naF0.0\naF0.0\naF0.0\naF0.0\naF0.0\naF0.0\naF0.0\naF0.0\naF0.0\naF0.0\naF0.0\naF0.0\naF0.0\naF0.0\naF0.0\naF0.0\naF0.0\naF0.0\naF0.0\naF0.0\naF0.0\naF0.0\naF7.358766122582525e-13\naF6.109319800478977e-13\naF3.9203079800998016e-13\naF2.5592629512050083e-13\naF1.5322600449276994e-13\naF1.0854639207775276e-13\naF7.243583157211106e-14\naF5.161050689343438e-14\naF2.1549885204302443e-14\naF8.226521833097674e-15\naF-4.536729881869769e-16\naF-1.9965744557951296e-15\naF-1.7363119832812058e-15\naF2.1266884219927434e-14\naF3.581204098711117e-14\naF5.2866503638871435e-14\naF7.407560400436376e-14\naF1.0948622923176271e-13\naF1.6398766079898653e-13\naF2.407693839317631e-13\naF3.549865981543571e-13\naF4.942592674034717e-13\naF6.65205252321788e-13\naF9.310063769465947e-13\naF1.2552560388799547e-12\naF1.5826004653721373e-12\naF7.365126780298266e-13\naF6.113040212609132e-13\naF3.9230674909205676e-13\naF2.56015758002041e-13\naF1.5329179721990304e-13\naF1.0859468503345058e-13\naF7.245038489214623e-14\naF5.160013487754863e-14\naF2.1512747562564687e-14\naF8.16224345045546e-15\naF-5.065398011797966e-16\naF-2.0340332057922497e-15\naF-1.7672748986071122e-15\naF2.125410252509719e-14\naF3.5779436542492665e-14\naF5.280177531871886e-14\naF7.39634862888686e-14\naF1.093270044980804e-13\naF1.6378140474413465e-13\naF2.4053436100104107e-13\naF3.547192683567521e-13\naF4.939342729258577e-13\naF6.647577562800441e-13\naF9.304682772595967e-13\naF1.2548377188864301e-12\naF1.582509039495159e-12\naa(lp103\nF8.006911660827126e-11\naF7.968942041390538e-11\naF0.0\naF0.0\naF0.0\naF0.0\naF0.0\naF0.0\naF0.0\naF0.0\naF0.0\naF0.0\naF0.0\naF0.0\naF0.0\naF0.0\naF0.0\naF0.0\naF0.0\naF0.0\naF0.0\naF0.0\naF0.0\naF0.0\naF0.0\naF0.0\naF0.0\naF0.0\naF0.0\naF0.0\naF0.0\naF0.0\naF0.0\naF0.0\naF0.0\naF0.0\naF0.0\naF0.0\naF1.1134043413089847e-12\naF9.552927676327591e-13\naF6.126845621267296e-13\naF3.9508695545031844e-13\naF2.0555429181021728e-13\naF1.4317659025577321e-13\naF1.0405059870531431e-13\naF7.688875032492886e-14\naF3.192140320724665e-14\naF1.090706396054326e-14\naF-6.765222395062283e-15\naF-7.765853006112023e-15\naF-5.0593496371733005e-15\naF2.218760628620444e-14\naF3.9680797885622145e-14\naF5.940636110338777e-14\naF8.000417072522021e-14\naF1.1991525225180978e-13\naF1.9159571585746058e-13\naF3.1790594351762746e-13\naF4.714870475067871e-13\naF6.497399515473232e-13\naF8.397289662600912e-13\naF1.1499669669914615e-12\naF1.583101459680209e-12\naF2.2406150604718143e-12\naF1.1139264636504835e-12\naF9.554812265178203e-13\naF6.127021618842472e-13\naF3.949225034035139e-13\naF2.0540702575589326e-13\naF1.430949483948294e-13\naF1.0395586499229133e-13\naF7.679992604203668e-14\naF3.181342967210773e-14\naF1.0781220902886502e-14\naF-6.865603384791436e-15\naF-7.833659331407548e-15\naF-5.11858927087478e-15\naF2.2156032033375832e-14\naF3.961791768972109e-14\naF5.929685970045176e-14\naF7.983024166643326e-14\naF1.1967316683373238e-13\naF1.9128750888641814e-13\naF3.1756242724656403e-13\naF4.710920434133148e-13\naF6.492589755424378e-13\naF8.39071269428197e-13\naF1.149158943794327e-12\naF1.582509039495159e-12\naF2.2406379130145532e-12\naaa(lp104\nI00\naI00\naI01\naI01\naI01\naI01\naI01\naI01\naI01\naI01\naI01\naI01\naI01\naI01\naI01\naI01\naI01\naI01\naI01\naI01\naI01\naI01\naI01\naI01\naI01\naI01\naI01\naI01\naI01\naI01\naI01\naI01\naI01\naI01\naI01\naI01\naI01\naI01\naI01\naI01\naI01\naI01\naI01\naI01\naI01\naI01\naI01\naI01\naI01\naI01\naI01\naI01\naI01\naI01\naI01\naI01\naI01\naI01\naI01\naI01\naI01\naI01\naI01\naI01\naI01\naI01\naI01\naI01\naI01\naI01\naI01\naI01\naI01\naI01\naI01\naI01\naI01\naI01\naI01\naI01\naI01\naI01\naI01\naI01\naI01\naI01\naI01\naI01\naI01\naI01\naa(lp105\n(lp106\nF0.00016515493047715635\naF3.280867289136656e-08\naF6.23616183790015e-08\naF-1.4022836378841204e-06\naF-2.996899611099442e-06\naF-1.4813658161065365e-07\naF-2.041855521982446e-07\naF-1.4041006327953566e-07\naF-7.52311259135219e-08\naF1.0015769370172938e-07\naF4.680547674260993e-06\naF9.533609771546844e-06\naF1.6828459310775538e-06\naF1.6588932155943232e-06\naF7.217937552118039e-10\naF3.3540247052537618e-09\naF2.3443687710450856e-09\naF9.268070377466607e-10\naF1.5015575744462438e-06\naF3.337728947923087e-08\naF8.53525261522413e-08\naF-1.8724607779051856e-06\naF-1.0626337317195999e-06\naF-8.39342669262309e-07\naF-2.3671678276799707e-05\naF3.634631369278709e-06\naF3.371722419551983e-08\naF1.0007245840007934e-07\naF4.730948519117408e-06\naF1.1314873566910246e-05\naF-9.125320159218732e-06\naF9.718580739700933e-07\naF9.66069120378341e-07\naF9.525676204698103e-07\naF3.608908585560491e-07\naF-2.2988267734017645e-10\naF3.2657222156984753\naF-146.91996545096225\naF2482.7869069637713\naF-22505.115986712688\naF94014.45575176035\naF-217505.59944548257\naF206879.17595577904\naF-130708.94627922073\naF25149.711697840317\naF348585.1359668569\naF-674640.7878794027\naF301383.05911296385\naF58939.02710071388\naF57347.28217432215\naF235048.89106952233\naF-613430.3962431368\naF370659.1591441642\naF34493.24719275994\naF-170094.4305952959\naF203029.08946132826\naF-137360.05589605862\naF69940.75753406732\naF-17509.555166556594\naF2580.7942467587\naF-156.5966043623897\naF3.473584775151373\naF-1.752830005427484\naF134.07043076497004\naF-2481.766285340349\naF22759.238033821686\naF-94429.45553938946\naF216879.00841621278\naF-205543.47459335622\naF129856.11774229602\naF-24071.54047765364\naF-349591.8098261224\naF675651.8014494668\naF-296294.3766624545\naF-67042.61619825827\naF-65340.22124784391\naF-231213.96950723452\naF614774.3203856101\naF-371798.60806637583\naF-33075.772489552604\naF169383.38854042094\naF-202182.6311653337\naF137128.83123339154\naF-70314.20602555736\naF17706.63384398783\naF-2581.937751232602\naF142.87740264633908\naF-1.864082555056312\naa(lp107\nF0.000165062480084592\naF3.286100768984854e-08\naF6.261306579954713e-08\naF-1.3817717751885197e-06\naF-3.010757465825508e-06\naF-1.3819820423791597e-07\naF-1.970105162162737e-07\naF-1.3628665060188672e-07\naF-7.319539628250095e-08\naF1.0010440540999999e-07\naF4.6854112395683835e-06\naF9.570492142550658e-06\naF1.6973880028933685e-06\naF1.6739557788328215e-06\naF6.151715016434167e-10\naF3.225896543376591e-09\naF2.271782995437111e-09\naF9.005538649161461e-10\naF1.5008159650688012e-06\naF3.3440096862864136e-08\naF8.587932744415963e-08\naF-1.889114419687481e-06\naF-1.0404507226705325e-06\naF-8.239931630140732e-07\naF-2.3310174090316712e-05\naF3.4267321645167853e-06\naF3.30027504815253e-08\naF1.0002411084740601e-07\naF4.736874976512152e-06\naF1.1374187007931994e-05\naF-8.887083993604221e-06\naF9.567976451750156e-07\naF9.511619239973608e-07\naF9.379268464986815e-07\naF3.564322596144674e-07\naF-2.2397017052499001e-10\naF3.186000889228509\naF-144.04003598338196\naF2444.6008575922333\naF-22255.100332979182\naF93436.7992413777\naF-217429.89317694996\naF207623.11811748613\naF-130216.39075368168\naF24913.752546576663\naF347072.9039369934\naF-675676.2332082873\naF291936.5501613561\naF72560.88097970458\naF70601.25558655722\naF227681.55111322613\naF-614371.8952597947\naF369051.1655873954\naF34169.62529881075\naF-169453.45724161158\naF203759.186625557\naF-137312.24555322685\naF69511.0179412825\naF-17315.03660090538\naF2541.100813444671\naF-153.52699313533842\naF3.3887892023528705\naF-1.7208095465745736\naF131.87512908189518\naF-2447.112783642144\naF22517.201279563695\naF-93854.43875913353\naF216794.7643566275\naF-206286.95795010272\naF129367.71649765415\naF-23819.02985157077\naF-348110.2808111456\naF676689.459510492\naF-286808.2838974808\naF-80684.47886997901\naF-78635.67980463711\naF-223811.47612207622\naF615718.4835298376\naF-370222.96924963035\naF-32728.80740739407\naF168746.32146015466\naF-202913.95781820858\naF137075.5651772912\naF-69886.03614864641\naF17518.329816495137\naF-2545.8855311764623\naF140.53789347408372\naF-1.8300297498397264\naaaasS'means'\np108\n(lp109\nF0.30872361624064765\naF0.30882217279245483\naF0.0\naF0.0\naF0.0\naF0.0\naF0.0\naF0.0\naF0.0\naF0.0\naF0.0\naF0.0\naF0.0\naF0.0\naF0.0\naF0.0\naF0.0\naF0.0\naF0.0\naF0.0\naF0.0\naF0.0\naF0.0\naF0.0\naF0.0\naF0.0\naF0.0\naF0.0\naF0.0\naF0.0\naF0.0\naF0.0\naF0.0\naF0.0\naF0.0\naF0.0\naF0.0\naF0.0\naF0.0\naF0.0\naF0.0\naF0.0\naF0.0\naF0.0\naF0.0\naF0.0\naF0.0\naF0.0\naF0.0\naF0.0\naF0.0\naF0.0\naF0.0\naF0.0\naF0.0\naF0.0\naF0.0\naF0.0\naF0.0\naF0.0\naF0.0\naF0.0\naF0.0\naF0.0\naF0.0\naF0.0\naF0.0\naF0.0\naF0.0\naF0.0\naF0.0\naF0.0\naF0.0\naF0.0\naF0.0\naF0.0\naF0.0\naF0.0\naF0.0\naF0.0\naF0.0\naF0.0\naF0.0\naF0.0\naF0.0\naF0.0\naF0.0\naF0.0\naF0.0\naF0.0\nasS'fix_cov'\np110\nI00\ns."
p2
sS'data'
p3
(dp4
S'E'
p5
(igvar._utilities
GVarRef
p6
(dp7
S'loc'
p8
I0
sbsS'Eqed'
p9
(igvar._utilities
GVarRef
p10
(dp11
g8
I1
sbss.