(dp0
S'gvlist'
p1
S"(dp0\nS'shape'\np1\n(lp2\nI1\nasS'bufsize'\np3\nI1\nsS'bcovs'\np4\n(lp5\n(lp6\n(lp7\nI0\naa(lp8\nF1.6806637770096812e-10\naa(lp9\na(lp10\naasS'means'\np11\n(lp12\nF1.0290963423150602e-08\nasS'fix_cov'\np13\nI01\ns."
p2
sS'data'
p3
(igvar._utilities
GVarRef
p4
(dp5
S'loc'
p6
I0
sbs.