(dp0
S'gvlist'
p1
S"(dp0\nS'shape'\np1\n(lp2\nI4\nasS'bufsize'\np3\nI4\nsS'bcovs'\np4\n(lp5\n(lp6\n(lp7\na(lp8\na(lp9\na(lp10\naa(lp11\n(lp12\nI0\naI1\naI2\naI3\naa(lp13\n(lp14\nF1.4198757035890158e-20\naF1.4145301424508292e-20\naF5.607800365650522e-20\naF5.679502814356063e-20\naa(lp15\nF1.4145301424508292e-20\naF1.4094875342997368e-20\naF5.590777598642926e-20\naF5.658120569803264e-20\naa(lp16\nF5.607800365650522e-20\naF5.590777598642926e-20\naF2.2210361559041606e-19\naF2.2431201462602155e-19\naa(lp17\nF5.679502814356063e-20\naF5.658120569803264e-20\naF2.2431201462602155e-19\naF2.2718011257424253e-19\naaa(lp18\na(lp19\naasS'means'\np20\n(lp21\nF9.694668335618594e-09\naF9.687196508918252e-09\naF3.875562255848936e-08\naF3.877867334247438e-08\nasS'fix_cov'\np22\nI01\ns."
p2
sS'data'
p3
(dp4
S'down-nocharge'
p5
(igvar._utilities
GVarRef
p6
(dp7
S'loc'
p8
I0
sbsS'down-charge'
p9
(igvar._utilities
GVarRef
p10
(dp11
g8
I1
sbsS'up-charge'
p12
(igvar._utilities
GVarRef
p13
(dp14
g8
I2
sbsS'up-nocharge'
p15
(igvar._utilities
GVarRef
p16
(dp17
g8
I3
sbss.