(dp0
S'gvlist'
p1
S"(dp0\nS'shape'\np1\n(lp2\nI4\nasS'bufsize'\np3\nI4\nsS'bcovs'\np4\n(lp5\n(lp6\n(lp7\na(lp8\na(lp9\na(lp10\naa(lp11\n(lp12\nI0\naI1\naI2\naI3\naa(lp13\n(lp14\nF8.910038368584387e-21\naF8.894446879409265e-21\naF3.5485002315202886e-20\naF3.564015347433755e-20\naa(lp15\nF8.894446879409265e-21\naF8.879304128666695e-21\naF3.5428562832720404e-20\naF3.5577787517637564e-20\naa(lp16\nF3.5485002315202886e-20\naF3.5428562832720404e-20\naF1.414076624780814e-19\naF1.419400092608126e-19\naa(lp17\nF3.564015347433755e-20\naF3.5577787517637564e-20\naF1.419400092608126e-19\naF1.425606138973502e-19\naaa(lp18\na(lp19\naasS'means'\np20\n(lp21\nF9.007714165329213e-09\naF8.999887272372014e-09\naF3.600238167329857e-08\naF3.603085666131685e-08\nasS'fix_cov'\np22\nI01\ns."
p2
sS'data'
p3
(dp4
S'down-nocharge'
p5
(igvar._utilities
GVarRef
p6
(dp7
S'loc'
p8
I0
sbsS'down-charge'
p9
(igvar._utilities
GVarRef
p10
(dp11
g8
I1
sbsS'up-charge'
p12
(igvar._utilities
GVarRef
p13
(dp14
g8
I2
sbsS'up-nocharge'
p15
(igvar._utilities
GVarRef
p16
(dp17
g8
I3
sbss.