(dp0
S'gvlist'
p1
S"(dp0\nS'shape'\np1\n(lp2\nI4\nasS'bufsize'\np3\nI4\nsS'bcovs'\np4\n(lp5\n(lp6\n(lp7\na(lp8\na(lp9\na(lp10\naa(lp11\n(lp12\nI0\naI1\naI2\naI3\naa(lp13\n(lp14\nF7.185558083942005e-21\naF7.176826573603804e-21\naF2.868146955237183e-20\naF2.874223233576802e-20\naa(lp15\nF7.176826573603804e-21\naF7.168240926002023e-21\naF2.864803595340337e-20\naF2.8707306294415103e-20\naa(lp16\nF2.868146955237183e-20\naF2.864803595340337e-20\naF1.145029311508575e-19\naF1.1472587820948759e-19\naa(lp17\nF2.874223233576802e-20\naF2.8707306294415103e-20\naF1.1472587820948759e-19\naF1.1496892934307208e-19\naaa(lp18\na(lp19\naasS'means'\np20\n(lp21\nF8.43270181858731e-09\naF8.42503058752151e-09\naF3.370035976658252e-08\naF3.373080727434924e-08\nasS'fix_cov'\np22\nI01\ns."
p2
sS'data'
p3
(dp4
S'down-nocharge'
p5
(igvar._utilities
GVarRef
p6
(dp7
S'loc'
p8
I0
sbsS'down-charge'
p9
(igvar._utilities
GVarRef
p10
(dp11
g8
I1
sbsS'up-charge'
p12
(igvar._utilities
GVarRef
p13
(dp14
g8
I2
sbsS'up-nocharge'
p15
(igvar._utilities
GVarRef
p16
(dp17
g8
I3
sbss.