(dp0
S'gvlist'
p1
S"(dp0\nS'shape'\np1\n(lp2\nI4\nasS'bufsize'\np3\nI4\nsS'bcovs'\np4\n(lp5\n(lp6\n(lp7\na(lp8\na(lp9\na(lp10\naa(lp11\n(lp12\nI0\naI1\naI2\naI3\naa(lp13\n(lp14\nF2.9492948245861238e-18\naF-2.8538423603987145e-12\naF-1.6108736667227794e-19\naF3.110382191258404e-18\naa(lp15\nF-2.8538423603987145e-12\naF4.186212944359306e-05\naF2.152600303128376e-12\naF-5.0064426635270555e-12\naa(lp16\nF-1.6108736667227794e-19\naF2.152600303128376e-12\naF1.1076390018432653e-19\naF-2.718512668566036e-19\naa(lp17\nF3.110382191258404e-18\naF-5.0064426635270555e-12\naF-2.718512668566036e-19\naF3.3822334581150037e-18\naaa(lp18\na(lp19\naasS'means'\np20\n(lp21\nF5.0538808937810896e-08\naF0.9948215992615451\naF-2.630725003542901e-10\naF5.0801881438165186e-08\nasS'fix_cov'\np22\nI01\ns."
p2
sS'data'
p3
(dp4
S'qcd+qed'
p5
(igvar._utilities
GVarRef
p6
(dp7
S'loc'
p8
I0
sbsS'rt'
p9
(igvar._utilities
GVarRef
p10
(dp11
g8
I1
sbsS'qcd'
p12
(igvar._utilities
GVarRef
p13
(dp14
g8
I3
sbsS'diff'
p15
(igvar._utilities
GVarRef
p16
(dp17
g8
I2
sbss.